ARM GAS  /var/folders/h5/b3x4g50d3yx3hd9mlg8mn_600000gn/T//cc8A1z0P.s 			page 1


   1              		.cpu cortex-m4
   2              		.arch armv7e-m
   3              		.fpu fpv4-sp-d16
   4              		.eabi_attribute 27, 1
   5              		.eabi_attribute 28, 1
   6              		.eabi_attribute 20, 1
   7              		.eabi_attribute 21, 1
   8              		.eabi_attribute 23, 3
   9              		.eabi_attribute 24, 1
  10              		.eabi_attribute 25, 1
  11              		.eabi_attribute 26, 1
  12              		.eabi_attribute 30, 1
  13              		.eabi_attribute 34, 1
  14              		.eabi_attribute 18, 4
  15              		.file	"gd32f4xx_timer.c"
  16              		.text
  17              	.Ltext0:
  18              		.cfi_sections	.debug_frame
  19              		.file 1 "../../../GD32F4xx_Firmware_Library/GD32F4xx_standard_peripheral/Source/gd32f4xx_timer.c"
  20              		.section	.text.timer_deinit,"ax",%progbits
  21              		.align	1
  22              		.global	timer_deinit
  23              		.syntax unified
  24              		.thumb
  25              		.thumb_func
  27              	timer_deinit:
  28              	.LVL0:
  29              	.LFB116:
   1:../../../GD32F4xx_Firmware_Library/GD32F4xx_standard_peripheral/Source/gd32f4xx_timer.c **** /*!
   2:../../../GD32F4xx_Firmware_Library/GD32F4xx_standard_peripheral/Source/gd32f4xx_timer.c ****     \file    gd32f4xx_timer.c
   3:../../../GD32F4xx_Firmware_Library/GD32F4xx_standard_peripheral/Source/gd32f4xx_timer.c ****     \brief   TIMER driver
   4:../../../GD32F4xx_Firmware_Library/GD32F4xx_standard_peripheral/Source/gd32f4xx_timer.c **** 
   5:../../../GD32F4xx_Firmware_Library/GD32F4xx_standard_peripheral/Source/gd32f4xx_timer.c ****     \version 2016-08-15, V1.0.0, firmware for GD32F4xx
   6:../../../GD32F4xx_Firmware_Library/GD32F4xx_standard_peripheral/Source/gd32f4xx_timer.c ****     \version 2018-12-12, V2.0.0, firmware for GD32F4xx
   7:../../../GD32F4xx_Firmware_Library/GD32F4xx_standard_peripheral/Source/gd32f4xx_timer.c ****     \version 2020-09-30, V2.1.0, firmware for GD32F4xx
   8:../../../GD32F4xx_Firmware_Library/GD32F4xx_standard_peripheral/Source/gd32f4xx_timer.c ****     \version 2022-03-09, V3.0.0, firmware for GD32F4xx
   9:../../../GD32F4xx_Firmware_Library/GD32F4xx_standard_peripheral/Source/gd32f4xx_timer.c **** */
  10:../../../GD32F4xx_Firmware_Library/GD32F4xx_standard_peripheral/Source/gd32f4xx_timer.c **** 
  11:../../../GD32F4xx_Firmware_Library/GD32F4xx_standard_peripheral/Source/gd32f4xx_timer.c **** /*
  12:../../../GD32F4xx_Firmware_Library/GD32F4xx_standard_peripheral/Source/gd32f4xx_timer.c ****     Copyright (c) 2022, GigaDevice Semiconductor Inc.
  13:../../../GD32F4xx_Firmware_Library/GD32F4xx_standard_peripheral/Source/gd32f4xx_timer.c **** 
  14:../../../GD32F4xx_Firmware_Library/GD32F4xx_standard_peripheral/Source/gd32f4xx_timer.c ****     Redistribution and use in source and binary forms, with or without modification,
  15:../../../GD32F4xx_Firmware_Library/GD32F4xx_standard_peripheral/Source/gd32f4xx_timer.c **** are permitted provided that the following conditions are met:
  16:../../../GD32F4xx_Firmware_Library/GD32F4xx_standard_peripheral/Source/gd32f4xx_timer.c **** 
  17:../../../GD32F4xx_Firmware_Library/GD32F4xx_standard_peripheral/Source/gd32f4xx_timer.c ****     1. Redistributions of source code must retain the above copyright notice, this
  18:../../../GD32F4xx_Firmware_Library/GD32F4xx_standard_peripheral/Source/gd32f4xx_timer.c ****        list of conditions and the following disclaimer.
  19:../../../GD32F4xx_Firmware_Library/GD32F4xx_standard_peripheral/Source/gd32f4xx_timer.c ****     2. Redistributions in binary form must reproduce the above copyright notice,
  20:../../../GD32F4xx_Firmware_Library/GD32F4xx_standard_peripheral/Source/gd32f4xx_timer.c ****        this list of conditions and the following disclaimer in the documentation
  21:../../../GD32F4xx_Firmware_Library/GD32F4xx_standard_peripheral/Source/gd32f4xx_timer.c ****        and/or other materials provided with the distribution.
  22:../../../GD32F4xx_Firmware_Library/GD32F4xx_standard_peripheral/Source/gd32f4xx_timer.c ****     3. Neither the name of the copyright holder nor the names of its contributors
  23:../../../GD32F4xx_Firmware_Library/GD32F4xx_standard_peripheral/Source/gd32f4xx_timer.c ****        may be used to endorse or promote products derived from this software without
  24:../../../GD32F4xx_Firmware_Library/GD32F4xx_standard_peripheral/Source/gd32f4xx_timer.c ****        specific prior written permission.
  25:../../../GD32F4xx_Firmware_Library/GD32F4xx_standard_peripheral/Source/gd32f4xx_timer.c **** 
  26:../../../GD32F4xx_Firmware_Library/GD32F4xx_standard_peripheral/Source/gd32f4xx_timer.c ****     THIS SOFTWARE IS PROVIDED BY THE COPYRIGHT HOLDERS AND CONTRIBUTORS "AS IS"
  27:../../../GD32F4xx_Firmware_Library/GD32F4xx_standard_peripheral/Source/gd32f4xx_timer.c **** AND ANY EXPRESS OR IMPLIED WARRANTIES, INCLUDING, BUT NOT LIMITED TO, THE IMPLIED
  28:../../../GD32F4xx_Firmware_Library/GD32F4xx_standard_peripheral/Source/gd32f4xx_timer.c **** WARRANTIES OF MERCHANTABILITY AND FITNESS FOR A PARTICULAR PURPOSE ARE DISCLAIMED.
  29:../../../GD32F4xx_Firmware_Library/GD32F4xx_standard_peripheral/Source/gd32f4xx_timer.c **** IN NO EVENT SHALL THE COPYRIGHT HOLDER OR CONTRIBUTORS BE LIABLE FOR ANY DIRECT,
ARM GAS  /var/folders/h5/b3x4g50d3yx3hd9mlg8mn_600000gn/T//cc8A1z0P.s 			page 2


  30:../../../GD32F4xx_Firmware_Library/GD32F4xx_standard_peripheral/Source/gd32f4xx_timer.c **** INDIRECT, INCIDENTAL, SPECIAL, EXEMPLARY, OR CONSEQUENTIAL DAMAGES (INCLUDING, BUT
  31:../../../GD32F4xx_Firmware_Library/GD32F4xx_standard_peripheral/Source/gd32f4xx_timer.c **** NOT LIMITED TO, PROCUREMENT OF SUBSTITUTE GOODS OR SERVICES; LOSS OF USE, DATA, OR
  32:../../../GD32F4xx_Firmware_Library/GD32F4xx_standard_peripheral/Source/gd32f4xx_timer.c **** PROFITS; OR BUSINESS INTERRUPTION) HOWEVER CAUSED AND ON ANY THEORY OF LIABILITY,
  33:../../../GD32F4xx_Firmware_Library/GD32F4xx_standard_peripheral/Source/gd32f4xx_timer.c **** WHETHER IN CONTRACT, STRICT LIABILITY, OR TORT (INCLUDING NEGLIGENCE OR OTHERWISE)
  34:../../../GD32F4xx_Firmware_Library/GD32F4xx_standard_peripheral/Source/gd32f4xx_timer.c **** ARISING IN ANY WAY OUT OF THE USE OF THIS SOFTWARE, EVEN IF ADVISED OF THE POSSIBILITY
  35:../../../GD32F4xx_Firmware_Library/GD32F4xx_standard_peripheral/Source/gd32f4xx_timer.c **** OF SUCH DAMAGE.
  36:../../../GD32F4xx_Firmware_Library/GD32F4xx_standard_peripheral/Source/gd32f4xx_timer.c **** */
  37:../../../GD32F4xx_Firmware_Library/GD32F4xx_standard_peripheral/Source/gd32f4xx_timer.c **** 
  38:../../../GD32F4xx_Firmware_Library/GD32F4xx_standard_peripheral/Source/gd32f4xx_timer.c **** 
  39:../../../GD32F4xx_Firmware_Library/GD32F4xx_standard_peripheral/Source/gd32f4xx_timer.c **** #include "gd32f4xx_timer.h"
  40:../../../GD32F4xx_Firmware_Library/GD32F4xx_standard_peripheral/Source/gd32f4xx_timer.c **** 
  41:../../../GD32F4xx_Firmware_Library/GD32F4xx_standard_peripheral/Source/gd32f4xx_timer.c **** /*!
  42:../../../GD32F4xx_Firmware_Library/GD32F4xx_standard_peripheral/Source/gd32f4xx_timer.c ****     \brief      deinit a TIMER
  43:../../../GD32F4xx_Firmware_Library/GD32F4xx_standard_peripheral/Source/gd32f4xx_timer.c ****     \param[in]  timer_periph: TIMERx(x=0..13)
  44:../../../GD32F4xx_Firmware_Library/GD32F4xx_standard_peripheral/Source/gd32f4xx_timer.c ****     \param[out] none
  45:../../../GD32F4xx_Firmware_Library/GD32F4xx_standard_peripheral/Source/gd32f4xx_timer.c ****     \retval     none
  46:../../../GD32F4xx_Firmware_Library/GD32F4xx_standard_peripheral/Source/gd32f4xx_timer.c **** */
  47:../../../GD32F4xx_Firmware_Library/GD32F4xx_standard_peripheral/Source/gd32f4xx_timer.c **** void timer_deinit(uint32_t timer_periph)
  48:../../../GD32F4xx_Firmware_Library/GD32F4xx_standard_peripheral/Source/gd32f4xx_timer.c **** {
  30              		.loc 1 48 1 view -0
  31              		.cfi_startproc
  32              		@ args = 0, pretend = 0, frame = 0
  33              		@ frame_needed = 0, uses_anonymous_args = 0
  34              		.loc 1 48 1 is_stmt 0 view .LVU1
  35 0000 08B5     		push	{r3, lr}
  36              	.LCFI0:
  37              		.cfi_def_cfa_offset 8
  38              		.cfi_offset 3, -8
  39              		.cfi_offset 14, -4
  49:../../../GD32F4xx_Firmware_Library/GD32F4xx_standard_peripheral/Source/gd32f4xx_timer.c ****     switch(timer_periph) {
  40              		.loc 1 49 5 is_stmt 1 view .LVU2
  41 0002 5B4B     		ldr	r3, .L26
  42 0004 9842     		cmp	r0, r3
  43 0006 00F0A980 		beq	.L2
  44 000a 3FD8     		bhi	.L3
  45 000c A3F58053 		sub	r3, r3, #4096
  46 0010 9842     		cmp	r0, r3
  47 0012 7FD0     		beq	.L4
  48 0014 10D9     		bls	.L21
  49 0016 574B     		ldr	r3, .L26+4
  50 0018 9842     		cmp	r0, r3
  51 001a 00F08480 		beq	.L10
  52 001e 03F58063 		add	r3, r3, #1024
  53 0022 9842     		cmp	r0, r3
  54 0024 25D1     		bne	.L22
  50:../../../GD32F4xx_Firmware_Library/GD32F4xx_standard_peripheral/Source/gd32f4xx_timer.c ****     case TIMER0:
  51:../../../GD32F4xx_Firmware_Library/GD32F4xx_standard_peripheral/Source/gd32f4xx_timer.c ****         /* reset TIMER0 */
  52:../../../GD32F4xx_Firmware_Library/GD32F4xx_standard_peripheral/Source/gd32f4xx_timer.c ****         rcu_periph_reset_enable(RCU_TIMER0RST);
  53:../../../GD32F4xx_Firmware_Library/GD32F4xx_standard_peripheral/Source/gd32f4xx_timer.c ****         rcu_periph_reset_disable(RCU_TIMER0RST);
  54:../../../GD32F4xx_Firmware_Library/GD32F4xx_standard_peripheral/Source/gd32f4xx_timer.c ****         break;
  55:../../../GD32F4xx_Firmware_Library/GD32F4xx_standard_peripheral/Source/gd32f4xx_timer.c ****     case TIMER1:
  56:../../../GD32F4xx_Firmware_Library/GD32F4xx_standard_peripheral/Source/gd32f4xx_timer.c ****         /* reset TIMER1 */
  57:../../../GD32F4xx_Firmware_Library/GD32F4xx_standard_peripheral/Source/gd32f4xx_timer.c ****         rcu_periph_reset_enable(RCU_TIMER1RST);
  58:../../../GD32F4xx_Firmware_Library/GD32F4xx_standard_peripheral/Source/gd32f4xx_timer.c ****         rcu_periph_reset_disable(RCU_TIMER1RST);
  59:../../../GD32F4xx_Firmware_Library/GD32F4xx_standard_peripheral/Source/gd32f4xx_timer.c ****         break;
  60:../../../GD32F4xx_Firmware_Library/GD32F4xx_standard_peripheral/Source/gd32f4xx_timer.c ****     case TIMER2:
  61:../../../GD32F4xx_Firmware_Library/GD32F4xx_standard_peripheral/Source/gd32f4xx_timer.c ****         /* reset TIMER2 */
ARM GAS  /var/folders/h5/b3x4g50d3yx3hd9mlg8mn_600000gn/T//cc8A1z0P.s 			page 3


  62:../../../GD32F4xx_Firmware_Library/GD32F4xx_standard_peripheral/Source/gd32f4xx_timer.c ****         rcu_periph_reset_enable(RCU_TIMER2RST);
  63:../../../GD32F4xx_Firmware_Library/GD32F4xx_standard_peripheral/Source/gd32f4xx_timer.c ****         rcu_periph_reset_disable(RCU_TIMER2RST);
  64:../../../GD32F4xx_Firmware_Library/GD32F4xx_standard_peripheral/Source/gd32f4xx_timer.c ****         break;
  65:../../../GD32F4xx_Firmware_Library/GD32F4xx_standard_peripheral/Source/gd32f4xx_timer.c ****     case TIMER3:
  66:../../../GD32F4xx_Firmware_Library/GD32F4xx_standard_peripheral/Source/gd32f4xx_timer.c ****         /* reset TIMER3 */
  67:../../../GD32F4xx_Firmware_Library/GD32F4xx_standard_peripheral/Source/gd32f4xx_timer.c ****         rcu_periph_reset_enable(RCU_TIMER3RST);
  68:../../../GD32F4xx_Firmware_Library/GD32F4xx_standard_peripheral/Source/gd32f4xx_timer.c ****         rcu_periph_reset_disable(RCU_TIMER3RST);
  69:../../../GD32F4xx_Firmware_Library/GD32F4xx_standard_peripheral/Source/gd32f4xx_timer.c ****         break;
  70:../../../GD32F4xx_Firmware_Library/GD32F4xx_standard_peripheral/Source/gd32f4xx_timer.c ****     case TIMER4:
  71:../../../GD32F4xx_Firmware_Library/GD32F4xx_standard_peripheral/Source/gd32f4xx_timer.c ****         /* reset TIMER4 */
  72:../../../GD32F4xx_Firmware_Library/GD32F4xx_standard_peripheral/Source/gd32f4xx_timer.c ****         rcu_periph_reset_enable(RCU_TIMER4RST);
  73:../../../GD32F4xx_Firmware_Library/GD32F4xx_standard_peripheral/Source/gd32f4xx_timer.c ****         rcu_periph_reset_disable(RCU_TIMER4RST);
  74:../../../GD32F4xx_Firmware_Library/GD32F4xx_standard_peripheral/Source/gd32f4xx_timer.c ****         break;
  75:../../../GD32F4xx_Firmware_Library/GD32F4xx_standard_peripheral/Source/gd32f4xx_timer.c ****     case TIMER5:
  76:../../../GD32F4xx_Firmware_Library/GD32F4xx_standard_peripheral/Source/gd32f4xx_timer.c ****         /* reset TIMER5 */
  77:../../../GD32F4xx_Firmware_Library/GD32F4xx_standard_peripheral/Source/gd32f4xx_timer.c ****         rcu_periph_reset_enable(RCU_TIMER5RST);
  78:../../../GD32F4xx_Firmware_Library/GD32F4xx_standard_peripheral/Source/gd32f4xx_timer.c ****         rcu_periph_reset_disable(RCU_TIMER5RST);
  79:../../../GD32F4xx_Firmware_Library/GD32F4xx_standard_peripheral/Source/gd32f4xx_timer.c ****         break;
  80:../../../GD32F4xx_Firmware_Library/GD32F4xx_standard_peripheral/Source/gd32f4xx_timer.c ****     case TIMER6:
  81:../../../GD32F4xx_Firmware_Library/GD32F4xx_standard_peripheral/Source/gd32f4xx_timer.c ****         /* reset TIMER6 */
  82:../../../GD32F4xx_Firmware_Library/GD32F4xx_standard_peripheral/Source/gd32f4xx_timer.c ****         rcu_periph_reset_enable(RCU_TIMER6RST);
  83:../../../GD32F4xx_Firmware_Library/GD32F4xx_standard_peripheral/Source/gd32f4xx_timer.c ****         rcu_periph_reset_disable(RCU_TIMER6RST);
  84:../../../GD32F4xx_Firmware_Library/GD32F4xx_standard_peripheral/Source/gd32f4xx_timer.c ****         break;
  85:../../../GD32F4xx_Firmware_Library/GD32F4xx_standard_peripheral/Source/gd32f4xx_timer.c ****     case TIMER7:
  86:../../../GD32F4xx_Firmware_Library/GD32F4xx_standard_peripheral/Source/gd32f4xx_timer.c ****         /* reset TIMER7 */
  87:../../../GD32F4xx_Firmware_Library/GD32F4xx_standard_peripheral/Source/gd32f4xx_timer.c ****         rcu_periph_reset_enable(RCU_TIMER7RST);
  88:../../../GD32F4xx_Firmware_Library/GD32F4xx_standard_peripheral/Source/gd32f4xx_timer.c ****         rcu_periph_reset_disable(RCU_TIMER7RST);
  89:../../../GD32F4xx_Firmware_Library/GD32F4xx_standard_peripheral/Source/gd32f4xx_timer.c ****         break;
  90:../../../GD32F4xx_Firmware_Library/GD32F4xx_standard_peripheral/Source/gd32f4xx_timer.c ****     case TIMER8:
  91:../../../GD32F4xx_Firmware_Library/GD32F4xx_standard_peripheral/Source/gd32f4xx_timer.c ****         /* reset TIMER8 */
  92:../../../GD32F4xx_Firmware_Library/GD32F4xx_standard_peripheral/Source/gd32f4xx_timer.c ****         rcu_periph_reset_enable(RCU_TIMER8RST);
  93:../../../GD32F4xx_Firmware_Library/GD32F4xx_standard_peripheral/Source/gd32f4xx_timer.c ****         rcu_periph_reset_disable(RCU_TIMER8RST);
  94:../../../GD32F4xx_Firmware_Library/GD32F4xx_standard_peripheral/Source/gd32f4xx_timer.c ****         break;
  95:../../../GD32F4xx_Firmware_Library/GD32F4xx_standard_peripheral/Source/gd32f4xx_timer.c ****     case TIMER9:
  96:../../../GD32F4xx_Firmware_Library/GD32F4xx_standard_peripheral/Source/gd32f4xx_timer.c ****         /* reset TIMER9 */
  97:../../../GD32F4xx_Firmware_Library/GD32F4xx_standard_peripheral/Source/gd32f4xx_timer.c ****         rcu_periph_reset_enable(RCU_TIMER9RST);
  98:../../../GD32F4xx_Firmware_Library/GD32F4xx_standard_peripheral/Source/gd32f4xx_timer.c ****         rcu_periph_reset_disable(RCU_TIMER9RST);
  99:../../../GD32F4xx_Firmware_Library/GD32F4xx_standard_peripheral/Source/gd32f4xx_timer.c ****         break;
 100:../../../GD32F4xx_Firmware_Library/GD32F4xx_standard_peripheral/Source/gd32f4xx_timer.c ****     case TIMER10:
 101:../../../GD32F4xx_Firmware_Library/GD32F4xx_standard_peripheral/Source/gd32f4xx_timer.c ****         /* reset TIMER10 */
 102:../../../GD32F4xx_Firmware_Library/GD32F4xx_standard_peripheral/Source/gd32f4xx_timer.c ****         rcu_periph_reset_enable(RCU_TIMER10RST);
 103:../../../GD32F4xx_Firmware_Library/GD32F4xx_standard_peripheral/Source/gd32f4xx_timer.c ****         rcu_periph_reset_disable(RCU_TIMER10RST);
 104:../../../GD32F4xx_Firmware_Library/GD32F4xx_standard_peripheral/Source/gd32f4xx_timer.c ****         break;
 105:../../../GD32F4xx_Firmware_Library/GD32F4xx_standard_peripheral/Source/gd32f4xx_timer.c ****     case TIMER11:
 106:../../../GD32F4xx_Firmware_Library/GD32F4xx_standard_peripheral/Source/gd32f4xx_timer.c ****         /* reset TIMER11 */
 107:../../../GD32F4xx_Firmware_Library/GD32F4xx_standard_peripheral/Source/gd32f4xx_timer.c ****         rcu_periph_reset_enable(RCU_TIMER11RST);
  55              		.loc 1 107 9 view .LVU3
  56 0026 40F60600 		movw	r0, #2054
  57              	.LVL1:
  58              		.loc 1 107 9 is_stmt 0 view .LVU4
  59 002a FFF7FEFF 		bl	rcu_periph_reset_enable
  60              	.LVL2:
 108:../../../GD32F4xx_Firmware_Library/GD32F4xx_standard_peripheral/Source/gd32f4xx_timer.c ****         rcu_periph_reset_disable(RCU_TIMER11RST);
  61              		.loc 1 108 9 is_stmt 1 view .LVU5
  62 002e 40F60600 		movw	r0, #2054
  63 0032 FFF7FEFF 		bl	rcu_periph_reset_disable
  64              	.LVL3:
ARM GAS  /var/folders/h5/b3x4g50d3yx3hd9mlg8mn_600000gn/T//cc8A1z0P.s 			page 4


 109:../../../GD32F4xx_Firmware_Library/GD32F4xx_standard_peripheral/Source/gd32f4xx_timer.c ****         break;
  65              		.loc 1 109 9 view .LVU6
  66 0036 63E0     		b	.L1
  67              	.LVL4:
  68              	.L21:
  49:../../../GD32F4xx_Firmware_Library/GD32F4xx_standard_peripheral/Source/gd32f4xx_timer.c ****     case TIMER0:
  69              		.loc 1 49 5 is_stmt 0 view .LVU7
  70 0038 A3F50063 		sub	r3, r3, #2048
  71 003c 9842     		cmp	r0, r3
  72 003e 60D0     		beq	.L6
  73 0040 03F58063 		add	r3, r3, #1024
  74 0044 9842     		cmp	r0, r3
  75 0046 08D1     		bne	.L23
  67:../../../GD32F4xx_Firmware_Library/GD32F4xx_standard_peripheral/Source/gd32f4xx_timer.c ****         rcu_periph_reset_disable(RCU_TIMER3RST);
  76              		.loc 1 67 9 is_stmt 1 view .LVU8
  77 0048 40F60200 		movw	r0, #2050
  78              	.LVL5:
  67:../../../GD32F4xx_Firmware_Library/GD32F4xx_standard_peripheral/Source/gd32f4xx_timer.c ****         rcu_periph_reset_disable(RCU_TIMER3RST);
  79              		.loc 1 67 9 is_stmt 0 view .LVU9
  80 004c FFF7FEFF 		bl	rcu_periph_reset_enable
  81              	.LVL6:
  68:../../../GD32F4xx_Firmware_Library/GD32F4xx_standard_peripheral/Source/gd32f4xx_timer.c ****         break;
  82              		.loc 1 68 9 is_stmt 1 view .LVU10
  83 0050 40F60200 		movw	r0, #2050
  84 0054 FFF7FEFF 		bl	rcu_periph_reset_disable
  85              	.LVL7:
  69:../../../GD32F4xx_Firmware_Library/GD32F4xx_standard_peripheral/Source/gd32f4xx_timer.c ****     case TIMER4:
  86              		.loc 1 69 9 view .LVU11
  87 0058 52E0     		b	.L1
  88              	.LVL8:
  89              	.L23:
  49:../../../GD32F4xx_Firmware_Library/GD32F4xx_standard_peripheral/Source/gd32f4xx_timer.c ****     case TIMER0:
  90              		.loc 1 49 5 is_stmt 0 view .LVU12
  91 005a B0F1804F 		cmp	r0, #1073741824
  92 005e 4FD1     		bne	.L1
  57:../../../GD32F4xx_Firmware_Library/GD32F4xx_standard_peripheral/Source/gd32f4xx_timer.c ****         rcu_periph_reset_disable(RCU_TIMER1RST);
  93              		.loc 1 57 9 is_stmt 1 view .LVU13
  94 0060 4FF40060 		mov	r0, #2048
  95              	.LVL9:
  57:../../../GD32F4xx_Firmware_Library/GD32F4xx_standard_peripheral/Source/gd32f4xx_timer.c ****         rcu_periph_reset_disable(RCU_TIMER1RST);
  96              		.loc 1 57 9 is_stmt 0 view .LVU14
  97 0064 FFF7FEFF 		bl	rcu_periph_reset_enable
  98              	.LVL10:
  58:../../../GD32F4xx_Firmware_Library/GD32F4xx_standard_peripheral/Source/gd32f4xx_timer.c ****         break;
  99              		.loc 1 58 9 is_stmt 1 view .LVU15
 100 0068 4FF40060 		mov	r0, #2048
 101 006c FFF7FEFF 		bl	rcu_periph_reset_disable
 102              	.LVL11:
  59:../../../GD32F4xx_Firmware_Library/GD32F4xx_standard_peripheral/Source/gd32f4xx_timer.c ****     case TIMER2:
 103              		.loc 1 59 9 view .LVU16
 104 0070 46E0     		b	.L1
 105              	.LVL12:
 106              	.L22:
  49:../../../GD32F4xx_Firmware_Library/GD32F4xx_standard_peripheral/Source/gd32f4xx_timer.c ****     case TIMER0:
 107              		.loc 1 49 5 is_stmt 0 view .LVU17
 108 0072 A3F50063 		sub	r3, r3, #2048
 109 0076 9842     		cmp	r0, r3
ARM GAS  /var/folders/h5/b3x4g50d3yx3hd9mlg8mn_600000gn/T//cc8A1z0P.s 			page 5


 110 0078 42D1     		bne	.L1
  77:../../../GD32F4xx_Firmware_Library/GD32F4xx_standard_peripheral/Source/gd32f4xx_timer.c ****         rcu_periph_reset_disable(RCU_TIMER5RST);
 111              		.loc 1 77 9 is_stmt 1 view .LVU18
 112 007a 40F60400 		movw	r0, #2052
 113              	.LVL13:
  77:../../../GD32F4xx_Firmware_Library/GD32F4xx_standard_peripheral/Source/gd32f4xx_timer.c ****         rcu_periph_reset_disable(RCU_TIMER5RST);
 114              		.loc 1 77 9 is_stmt 0 view .LVU19
 115 007e FFF7FEFF 		bl	rcu_periph_reset_enable
 116              	.LVL14:
  78:../../../GD32F4xx_Firmware_Library/GD32F4xx_standard_peripheral/Source/gd32f4xx_timer.c ****         break;
 117              		.loc 1 78 9 is_stmt 1 view .LVU20
 118 0082 40F60400 		movw	r0, #2052
 119 0086 FFF7FEFF 		bl	rcu_periph_reset_disable
 120              	.LVL15:
  79:../../../GD32F4xx_Firmware_Library/GD32F4xx_standard_peripheral/Source/gd32f4xx_timer.c ****     case TIMER6:
 121              		.loc 1 79 9 view .LVU21
 122 008a 39E0     		b	.L1
 123              	.LVL16:
 124              	.L3:
  49:../../../GD32F4xx_Firmware_Library/GD32F4xx_standard_peripheral/Source/gd32f4xx_timer.c ****     case TIMER0:
 125              		.loc 1 49 5 is_stmt 0 view .LVU22
 126 008c 3A4B     		ldr	r3, .L26+8
 127 008e 9842     		cmp	r0, r3
 128 0090 52D0     		beq	.L13
 129 0092 0FD9     		bls	.L24
 130 0094 394B     		ldr	r3, .L26+12
 131 0096 9842     		cmp	r0, r3
 132 0098 57D0     		beq	.L18
 133 009a 03F58063 		add	r3, r3, #1024
 134 009e 9842     		cmp	r0, r3
 135 00a0 2ED1     		bne	.L1
 102:../../../GD32F4xx_Firmware_Library/GD32F4xx_standard_peripheral/Source/gd32f4xx_timer.c ****         rcu_periph_reset_disable(RCU_TIMER10RST);
 136              		.loc 1 102 9 is_stmt 1 view .LVU23
 137 00a2 40F61210 		movw	r0, #2322
 138              	.LVL17:
 102:../../../GD32F4xx_Firmware_Library/GD32F4xx_standard_peripheral/Source/gd32f4xx_timer.c ****         rcu_periph_reset_disable(RCU_TIMER10RST);
 139              		.loc 1 102 9 is_stmt 0 view .LVU24
 140 00a6 FFF7FEFF 		bl	rcu_periph_reset_enable
 141              	.LVL18:
 103:../../../GD32F4xx_Firmware_Library/GD32F4xx_standard_peripheral/Source/gd32f4xx_timer.c ****         break;
 142              		.loc 1 103 9 is_stmt 1 view .LVU25
 143 00aa 40F61210 		movw	r0, #2322
 144 00ae FFF7FEFF 		bl	rcu_periph_reset_disable
 145              	.LVL19:
 104:../../../GD32F4xx_Firmware_Library/GD32F4xx_standard_peripheral/Source/gd32f4xx_timer.c ****     case TIMER11:
 146              		.loc 1 104 9 view .LVU26
 147 00b2 25E0     		b	.L1
 148              	.LVL20:
 149              	.L24:
  49:../../../GD32F4xx_Firmware_Library/GD32F4xx_standard_peripheral/Source/gd32f4xx_timer.c ****     case TIMER0:
 150              		.loc 1 49 5 is_stmt 0 view .LVU27
 151 00b4 A3F58043 		sub	r3, r3, #16384
 152 00b8 9842     		cmp	r0, r3
 153 00ba 19D0     		beq	.L15
 154 00bc 03F58063 		add	r3, r3, #1024
 155 00c0 9842     		cmp	r0, r3
 156 00c2 08D1     		bne	.L25
ARM GAS  /var/folders/h5/b3x4g50d3yx3hd9mlg8mn_600000gn/T//cc8A1z0P.s 			page 6


  87:../../../GD32F4xx_Firmware_Library/GD32F4xx_standard_peripheral/Source/gd32f4xx_timer.c ****         rcu_periph_reset_disable(RCU_TIMER7RST);
 157              		.loc 1 87 9 is_stmt 1 view .LVU28
 158 00c4 40F60110 		movw	r0, #2305
 159              	.LVL21:
  87:../../../GD32F4xx_Firmware_Library/GD32F4xx_standard_peripheral/Source/gd32f4xx_timer.c ****         rcu_periph_reset_disable(RCU_TIMER7RST);
 160              		.loc 1 87 9 is_stmt 0 view .LVU29
 161 00c8 FFF7FEFF 		bl	rcu_periph_reset_enable
 162              	.LVL22:
  88:../../../GD32F4xx_Firmware_Library/GD32F4xx_standard_peripheral/Source/gd32f4xx_timer.c ****         break;
 163              		.loc 1 88 9 is_stmt 1 view .LVU30
 164 00cc 40F60110 		movw	r0, #2305
 165 00d0 FFF7FEFF 		bl	rcu_periph_reset_disable
 166              	.LVL23:
  89:../../../GD32F4xx_Firmware_Library/GD32F4xx_standard_peripheral/Source/gd32f4xx_timer.c ****     case TIMER8:
 167              		.loc 1 89 9 view .LVU31
 168 00d4 14E0     		b	.L1
 169              	.LVL24:
 170              	.L25:
  49:../../../GD32F4xx_Firmware_Library/GD32F4xx_standard_peripheral/Source/gd32f4xx_timer.c ****     case TIMER0:
 171              		.loc 1 49 5 is_stmt 0 view .LVU32
 172 00d6 A3F56443 		sub	r3, r3, #58368
 173 00da 9842     		cmp	r0, r3
 174 00dc 10D1     		bne	.L1
 110:../../../GD32F4xx_Firmware_Library/GD32F4xx_standard_peripheral/Source/gd32f4xx_timer.c ****     case TIMER12:
 111:../../../GD32F4xx_Firmware_Library/GD32F4xx_standard_peripheral/Source/gd32f4xx_timer.c ****         /* reset TIMER12 */
 112:../../../GD32F4xx_Firmware_Library/GD32F4xx_standard_peripheral/Source/gd32f4xx_timer.c ****         rcu_periph_reset_enable(RCU_TIMER12RST);
 113:../../../GD32F4xx_Firmware_Library/GD32F4xx_standard_peripheral/Source/gd32f4xx_timer.c ****         rcu_periph_reset_disable(RCU_TIMER12RST);
 114:../../../GD32F4xx_Firmware_Library/GD32F4xx_standard_peripheral/Source/gd32f4xx_timer.c ****         break;
 115:../../../GD32F4xx_Firmware_Library/GD32F4xx_standard_peripheral/Source/gd32f4xx_timer.c ****     case TIMER13:
 116:../../../GD32F4xx_Firmware_Library/GD32F4xx_standard_peripheral/Source/gd32f4xx_timer.c ****         /* reset TIMER13 */
 117:../../../GD32F4xx_Firmware_Library/GD32F4xx_standard_peripheral/Source/gd32f4xx_timer.c ****         rcu_periph_reset_enable(RCU_TIMER13RST);
 175              		.loc 1 117 9 is_stmt 1 view .LVU33
 176 00de 40F60800 		movw	r0, #2056
 177              	.LVL25:
 178              		.loc 1 117 9 is_stmt 0 view .LVU34
 179 00e2 FFF7FEFF 		bl	rcu_periph_reset_enable
 180              	.LVL26:
 118:../../../GD32F4xx_Firmware_Library/GD32F4xx_standard_peripheral/Source/gd32f4xx_timer.c ****         rcu_periph_reset_disable(RCU_TIMER13RST);
 181              		.loc 1 118 9 is_stmt 1 view .LVU35
 182 00e6 40F60800 		movw	r0, #2056
 183 00ea FFF7FEFF 		bl	rcu_periph_reset_disable
 184              	.LVL27:
 119:../../../GD32F4xx_Firmware_Library/GD32F4xx_standard_peripheral/Source/gd32f4xx_timer.c ****         break;
 185              		.loc 1 119 9 view .LVU36
 120:../../../GD32F4xx_Firmware_Library/GD32F4xx_standard_peripheral/Source/gd32f4xx_timer.c ****     default:
 121:../../../GD32F4xx_Firmware_Library/GD32F4xx_standard_peripheral/Source/gd32f4xx_timer.c ****         break;
 122:../../../GD32F4xx_Firmware_Library/GD32F4xx_standard_peripheral/Source/gd32f4xx_timer.c ****     }
 123:../../../GD32F4xx_Firmware_Library/GD32F4xx_standard_peripheral/Source/gd32f4xx_timer.c **** }
 186              		.loc 1 123 1 is_stmt 0 view .LVU37
 187 00ee 07E0     		b	.L1
 188              	.LVL28:
 189              	.L15:
  52:../../../GD32F4xx_Firmware_Library/GD32F4xx_standard_peripheral/Source/gd32f4xx_timer.c ****         rcu_periph_reset_disable(RCU_TIMER0RST);
 190              		.loc 1 52 9 is_stmt 1 view .LVU38
 191 00f0 4FF41060 		mov	r0, #2304
 192              	.LVL29:
  52:../../../GD32F4xx_Firmware_Library/GD32F4xx_standard_peripheral/Source/gd32f4xx_timer.c ****         rcu_periph_reset_disable(RCU_TIMER0RST);
ARM GAS  /var/folders/h5/b3x4g50d3yx3hd9mlg8mn_600000gn/T//cc8A1z0P.s 			page 7


 193              		.loc 1 52 9 is_stmt 0 view .LVU39
 194 00f4 FFF7FEFF 		bl	rcu_periph_reset_enable
 195              	.LVL30:
  53:../../../GD32F4xx_Firmware_Library/GD32F4xx_standard_peripheral/Source/gd32f4xx_timer.c ****         break;
 196              		.loc 1 53 9 is_stmt 1 view .LVU40
 197 00f8 4FF41060 		mov	r0, #2304
 198 00fc FFF7FEFF 		bl	rcu_periph_reset_disable
 199              	.LVL31:
  54:../../../GD32F4xx_Firmware_Library/GD32F4xx_standard_peripheral/Source/gd32f4xx_timer.c ****     case TIMER1:
 200              		.loc 1 54 9 view .LVU41
 201              	.L1:
 202              		.loc 1 123 1 is_stmt 0 view .LVU42
 203 0100 08BD     		pop	{r3, pc}
 204              	.LVL32:
 205              	.L6:
  62:../../../GD32F4xx_Firmware_Library/GD32F4xx_standard_peripheral/Source/gd32f4xx_timer.c ****         rcu_periph_reset_disable(RCU_TIMER2RST);
 206              		.loc 1 62 9 is_stmt 1 view .LVU43
 207 0102 40F60100 		movw	r0, #2049
 208              	.LVL33:
  62:../../../GD32F4xx_Firmware_Library/GD32F4xx_standard_peripheral/Source/gd32f4xx_timer.c ****         rcu_periph_reset_disable(RCU_TIMER2RST);
 209              		.loc 1 62 9 is_stmt 0 view .LVU44
 210 0106 FFF7FEFF 		bl	rcu_periph_reset_enable
 211              	.LVL34:
  63:../../../GD32F4xx_Firmware_Library/GD32F4xx_standard_peripheral/Source/gd32f4xx_timer.c ****         break;
 212              		.loc 1 63 9 is_stmt 1 view .LVU45
 213 010a 40F60100 		movw	r0, #2049
 214 010e FFF7FEFF 		bl	rcu_periph_reset_disable
 215              	.LVL35:
  64:../../../GD32F4xx_Firmware_Library/GD32F4xx_standard_peripheral/Source/gd32f4xx_timer.c ****     case TIMER3:
 216              		.loc 1 64 9 view .LVU46
 217 0112 F5E7     		b	.L1
 218              	.LVL36:
 219              	.L4:
  72:../../../GD32F4xx_Firmware_Library/GD32F4xx_standard_peripheral/Source/gd32f4xx_timer.c ****         rcu_periph_reset_disable(RCU_TIMER4RST);
 220              		.loc 1 72 9 view .LVU47
 221 0114 40F60300 		movw	r0, #2051
 222              	.LVL37:
  72:../../../GD32F4xx_Firmware_Library/GD32F4xx_standard_peripheral/Source/gd32f4xx_timer.c ****         rcu_periph_reset_disable(RCU_TIMER4RST);
 223              		.loc 1 72 9 is_stmt 0 view .LVU48
 224 0118 FFF7FEFF 		bl	rcu_periph_reset_enable
 225              	.LVL38:
  73:../../../GD32F4xx_Firmware_Library/GD32F4xx_standard_peripheral/Source/gd32f4xx_timer.c ****         break;
 226              		.loc 1 73 9 is_stmt 1 view .LVU49
 227 011c 40F60300 		movw	r0, #2051
 228 0120 FFF7FEFF 		bl	rcu_periph_reset_disable
 229              	.LVL39:
  74:../../../GD32F4xx_Firmware_Library/GD32F4xx_standard_peripheral/Source/gd32f4xx_timer.c ****     case TIMER5:
 230              		.loc 1 74 9 view .LVU50
 231 0124 ECE7     		b	.L1
 232              	.LVL40:
 233              	.L10:
  82:../../../GD32F4xx_Firmware_Library/GD32F4xx_standard_peripheral/Source/gd32f4xx_timer.c ****         rcu_periph_reset_disable(RCU_TIMER6RST);
 234              		.loc 1 82 9 view .LVU51
 235 0126 40F60500 		movw	r0, #2053
 236              	.LVL41:
  82:../../../GD32F4xx_Firmware_Library/GD32F4xx_standard_peripheral/Source/gd32f4xx_timer.c ****         rcu_periph_reset_disable(RCU_TIMER6RST);
 237              		.loc 1 82 9 is_stmt 0 view .LVU52
ARM GAS  /var/folders/h5/b3x4g50d3yx3hd9mlg8mn_600000gn/T//cc8A1z0P.s 			page 8


 238 012a FFF7FEFF 		bl	rcu_periph_reset_enable
 239              	.LVL42:
  83:../../../GD32F4xx_Firmware_Library/GD32F4xx_standard_peripheral/Source/gd32f4xx_timer.c ****         break;
 240              		.loc 1 83 9 is_stmt 1 view .LVU53
 241 012e 40F60500 		movw	r0, #2053
 242 0132 FFF7FEFF 		bl	rcu_periph_reset_disable
 243              	.LVL43:
  84:../../../GD32F4xx_Firmware_Library/GD32F4xx_standard_peripheral/Source/gd32f4xx_timer.c ****     case TIMER7:
 244              		.loc 1 84 9 view .LVU54
 245 0136 E3E7     		b	.L1
 246              	.LVL44:
 247              	.L13:
  92:../../../GD32F4xx_Firmware_Library/GD32F4xx_standard_peripheral/Source/gd32f4xx_timer.c ****         rcu_periph_reset_disable(RCU_TIMER8RST);
 248              		.loc 1 92 9 view .LVU55
 249 0138 4FF41160 		mov	r0, #2320
 250              	.LVL45:
  92:../../../GD32F4xx_Firmware_Library/GD32F4xx_standard_peripheral/Source/gd32f4xx_timer.c ****         rcu_periph_reset_disable(RCU_TIMER8RST);
 251              		.loc 1 92 9 is_stmt 0 view .LVU56
 252 013c FFF7FEFF 		bl	rcu_periph_reset_enable
 253              	.LVL46:
  93:../../../GD32F4xx_Firmware_Library/GD32F4xx_standard_peripheral/Source/gd32f4xx_timer.c ****         break;
 254              		.loc 1 93 9 is_stmt 1 view .LVU57
 255 0140 4FF41160 		mov	r0, #2320
 256 0144 FFF7FEFF 		bl	rcu_periph_reset_disable
 257              	.LVL47:
  94:../../../GD32F4xx_Firmware_Library/GD32F4xx_standard_peripheral/Source/gd32f4xx_timer.c ****     case TIMER9:
 258              		.loc 1 94 9 view .LVU58
 259 0148 DAE7     		b	.L1
 260              	.LVL48:
 261              	.L18:
  97:../../../GD32F4xx_Firmware_Library/GD32F4xx_standard_peripheral/Source/gd32f4xx_timer.c ****         rcu_periph_reset_disable(RCU_TIMER9RST);
 262              		.loc 1 97 9 view .LVU59
 263 014a 40F61110 		movw	r0, #2321
 264              	.LVL49:
  97:../../../GD32F4xx_Firmware_Library/GD32F4xx_standard_peripheral/Source/gd32f4xx_timer.c ****         rcu_periph_reset_disable(RCU_TIMER9RST);
 265              		.loc 1 97 9 is_stmt 0 view .LVU60
 266 014e FFF7FEFF 		bl	rcu_periph_reset_enable
 267              	.LVL50:
  98:../../../GD32F4xx_Firmware_Library/GD32F4xx_standard_peripheral/Source/gd32f4xx_timer.c ****         break;
 268              		.loc 1 98 9 is_stmt 1 view .LVU61
 269 0152 40F61110 		movw	r0, #2321
 270 0156 FFF7FEFF 		bl	rcu_periph_reset_disable
 271              	.LVL51:
  99:../../../GD32F4xx_Firmware_Library/GD32F4xx_standard_peripheral/Source/gd32f4xx_timer.c ****     case TIMER10:
 272              		.loc 1 99 9 view .LVU62
 273 015a D1E7     		b	.L1
 274              	.LVL52:
 275              	.L2:
 112:../../../GD32F4xx_Firmware_Library/GD32F4xx_standard_peripheral/Source/gd32f4xx_timer.c ****         rcu_periph_reset_disable(RCU_TIMER12RST);
 276              		.loc 1 112 9 view .LVU63
 277 015c 40F60700 		movw	r0, #2055
 278              	.LVL53:
 112:../../../GD32F4xx_Firmware_Library/GD32F4xx_standard_peripheral/Source/gd32f4xx_timer.c ****         rcu_periph_reset_disable(RCU_TIMER12RST);
 279              		.loc 1 112 9 is_stmt 0 view .LVU64
 280 0160 FFF7FEFF 		bl	rcu_periph_reset_enable
 281              	.LVL54:
 113:../../../GD32F4xx_Firmware_Library/GD32F4xx_standard_peripheral/Source/gd32f4xx_timer.c ****         break;
ARM GAS  /var/folders/h5/b3x4g50d3yx3hd9mlg8mn_600000gn/T//cc8A1z0P.s 			page 9


 282              		.loc 1 113 9 is_stmt 1 view .LVU65
 283 0164 40F60700 		movw	r0, #2055
 284 0168 FFF7FEFF 		bl	rcu_periph_reset_disable
 285              	.LVL55:
 114:../../../GD32F4xx_Firmware_Library/GD32F4xx_standard_peripheral/Source/gd32f4xx_timer.c ****     case TIMER13:
 286              		.loc 1 114 9 view .LVU66
 287 016c C8E7     		b	.L1
 288              	.L27:
 289 016e 00BF     		.align	2
 290              	.L26:
 291 0170 001C0040 		.word	1073748992
 292 0174 00140040 		.word	1073746944
 293 0178 00400140 		.word	1073823744
 294 017c 00440140 		.word	1073824768
 295              		.cfi_endproc
 296              	.LFE116:
 298              		.section	.text.timer_struct_para_init,"ax",%progbits
 299              		.align	1
 300              		.global	timer_struct_para_init
 301              		.syntax unified
 302              		.thumb
 303              		.thumb_func
 305              	timer_struct_para_init:
 306              	.LVL56:
 307              	.LFB117:
 124:../../../GD32F4xx_Firmware_Library/GD32F4xx_standard_peripheral/Source/gd32f4xx_timer.c **** 
 125:../../../GD32F4xx_Firmware_Library/GD32F4xx_standard_peripheral/Source/gd32f4xx_timer.c **** /*!
 126:../../../GD32F4xx_Firmware_Library/GD32F4xx_standard_peripheral/Source/gd32f4xx_timer.c ****     \brief      initialize TIMER init parameter struct with a default value
 127:../../../GD32F4xx_Firmware_Library/GD32F4xx_standard_peripheral/Source/gd32f4xx_timer.c ****     \param[in]  initpara: init parameter struct
 128:../../../GD32F4xx_Firmware_Library/GD32F4xx_standard_peripheral/Source/gd32f4xx_timer.c ****     \param[out] none
 129:../../../GD32F4xx_Firmware_Library/GD32F4xx_standard_peripheral/Source/gd32f4xx_timer.c ****     \retval     none
 130:../../../GD32F4xx_Firmware_Library/GD32F4xx_standard_peripheral/Source/gd32f4xx_timer.c **** */
 131:../../../GD32F4xx_Firmware_Library/GD32F4xx_standard_peripheral/Source/gd32f4xx_timer.c **** void timer_struct_para_init(timer_parameter_struct *initpara)
 132:../../../GD32F4xx_Firmware_Library/GD32F4xx_standard_peripheral/Source/gd32f4xx_timer.c **** {
 308              		.loc 1 132 1 view -0
 309              		.cfi_startproc
 310              		@ args = 0, pretend = 0, frame = 0
 311              		@ frame_needed = 0, uses_anonymous_args = 0
 312              		@ link register save eliminated.
 133:../../../GD32F4xx_Firmware_Library/GD32F4xx_standard_peripheral/Source/gd32f4xx_timer.c ****     /* initialize the init parameter struct member with the default value */
 134:../../../GD32F4xx_Firmware_Library/GD32F4xx_standard_peripheral/Source/gd32f4xx_timer.c ****     initpara->prescaler         = 0U;
 313              		.loc 1 134 5 view .LVU68
 314              		.loc 1 134 33 is_stmt 0 view .LVU69
 315 0000 0023     		movs	r3, #0
 316 0002 0380     		strh	r3, [r0]	@ movhi
 135:../../../GD32F4xx_Firmware_Library/GD32F4xx_standard_peripheral/Source/gd32f4xx_timer.c ****     initpara->alignedmode       = TIMER_COUNTER_EDGE;
 317              		.loc 1 135 5 is_stmt 1 view .LVU70
 318              		.loc 1 135 33 is_stmt 0 view .LVU71
 319 0004 4380     		strh	r3, [r0, #2]	@ movhi
 136:../../../GD32F4xx_Firmware_Library/GD32F4xx_standard_peripheral/Source/gd32f4xx_timer.c ****     initpara->counterdirection  = TIMER_COUNTER_UP;
 320              		.loc 1 136 5 is_stmt 1 view .LVU72
 321              		.loc 1 136 33 is_stmt 0 view .LVU73
 322 0006 8380     		strh	r3, [r0, #4]	@ movhi
 137:../../../GD32F4xx_Firmware_Library/GD32F4xx_standard_peripheral/Source/gd32f4xx_timer.c ****     initpara->period            = 65535U;
 323              		.loc 1 137 5 is_stmt 1 view .LVU74
 324              		.loc 1 137 33 is_stmt 0 view .LVU75
 325 0008 4FF6FF72 		movw	r2, #65535
ARM GAS  /var/folders/h5/b3x4g50d3yx3hd9mlg8mn_600000gn/T//cc8A1z0P.s 			page 10


 326 000c 8260     		str	r2, [r0, #8]
 138:../../../GD32F4xx_Firmware_Library/GD32F4xx_standard_peripheral/Source/gd32f4xx_timer.c ****     initpara->clockdivision     = TIMER_CKDIV_DIV1;
 327              		.loc 1 138 5 is_stmt 1 view .LVU76
 328              		.loc 1 138 33 is_stmt 0 view .LVU77
 329 000e C380     		strh	r3, [r0, #6]	@ movhi
 139:../../../GD32F4xx_Firmware_Library/GD32F4xx_standard_peripheral/Source/gd32f4xx_timer.c ****     initpara->repetitioncounter = 0U;
 330              		.loc 1 139 5 is_stmt 1 view .LVU78
 331              		.loc 1 139 33 is_stmt 0 view .LVU79
 332 0010 0373     		strb	r3, [r0, #12]
 140:../../../GD32F4xx_Firmware_Library/GD32F4xx_standard_peripheral/Source/gd32f4xx_timer.c **** }
 333              		.loc 1 140 1 view .LVU80
 334 0012 7047     		bx	lr
 335              		.cfi_endproc
 336              	.LFE117:
 338              		.section	.text.timer_init,"ax",%progbits
 339              		.align	1
 340              		.global	timer_init
 341              		.syntax unified
 342              		.thumb
 343              		.thumb_func
 345              	timer_init:
 346              	.LVL57:
 347              	.LFB118:
 141:../../../GD32F4xx_Firmware_Library/GD32F4xx_standard_peripheral/Source/gd32f4xx_timer.c **** 
 142:../../../GD32F4xx_Firmware_Library/GD32F4xx_standard_peripheral/Source/gd32f4xx_timer.c **** /*!
 143:../../../GD32F4xx_Firmware_Library/GD32F4xx_standard_peripheral/Source/gd32f4xx_timer.c ****     \brief      initialize TIMER counter
 144:../../../GD32F4xx_Firmware_Library/GD32F4xx_standard_peripheral/Source/gd32f4xx_timer.c ****     \param[in]  timer_periph: TIMERx(x=0..13)
 145:../../../GD32F4xx_Firmware_Library/GD32F4xx_standard_peripheral/Source/gd32f4xx_timer.c ****     \param[in]  initpara: init parameter struct
 146:../../../GD32F4xx_Firmware_Library/GD32F4xx_standard_peripheral/Source/gd32f4xx_timer.c ****                 prescaler: prescaler value of the counter clock,0~65535
 147:../../../GD32F4xx_Firmware_Library/GD32F4xx_standard_peripheral/Source/gd32f4xx_timer.c ****                 alignedmode: TIMER_COUNTER_EDGE,TIMER_COUNTER_CENTER_DOWN,TIMER_COUNTER_CENTER_UP,T
 148:../../../GD32F4xx_Firmware_Library/GD32F4xx_standard_peripheral/Source/gd32f4xx_timer.c ****                 counterdirection: TIMER_COUNTER_UP,TIMER_COUNTER_DOWN
 149:../../../GD32F4xx_Firmware_Library/GD32F4xx_standard_peripheral/Source/gd32f4xx_timer.c ****                 period: counter auto reload value,(TIMER1,TIMER4,32 bit)
 150:../../../GD32F4xx_Firmware_Library/GD32F4xx_standard_peripheral/Source/gd32f4xx_timer.c ****                 clockdivision: TIMER_CKDIV_DIV1,TIMER_CKDIV_DIV2,TIMER_CKDIV_DIV4
 151:../../../GD32F4xx_Firmware_Library/GD32F4xx_standard_peripheral/Source/gd32f4xx_timer.c ****                 repetitioncounter: counter repetition value,0~255
 152:../../../GD32F4xx_Firmware_Library/GD32F4xx_standard_peripheral/Source/gd32f4xx_timer.c ****     \param[out] none
 153:../../../GD32F4xx_Firmware_Library/GD32F4xx_standard_peripheral/Source/gd32f4xx_timer.c ****     \retval     none
 154:../../../GD32F4xx_Firmware_Library/GD32F4xx_standard_peripheral/Source/gd32f4xx_timer.c **** */
 155:../../../GD32F4xx_Firmware_Library/GD32F4xx_standard_peripheral/Source/gd32f4xx_timer.c **** void timer_init(uint32_t timer_periph, timer_parameter_struct *initpara)
 156:../../../GD32F4xx_Firmware_Library/GD32F4xx_standard_peripheral/Source/gd32f4xx_timer.c **** {
 348              		.loc 1 156 1 is_stmt 1 view -0
 349              		.cfi_startproc
 350              		@ args = 0, pretend = 0, frame = 0
 351              		@ frame_needed = 0, uses_anonymous_args = 0
 352              		@ link register save eliminated.
 157:../../../GD32F4xx_Firmware_Library/GD32F4xx_standard_peripheral/Source/gd32f4xx_timer.c ****     /* configure the counter prescaler value */
 158:../../../GD32F4xx_Firmware_Library/GD32F4xx_standard_peripheral/Source/gd32f4xx_timer.c ****     TIMER_PSC(timer_periph) = (uint16_t)initpara->prescaler;
 353              		.loc 1 158 5 view .LVU82
 354              		.loc 1 158 49 is_stmt 0 view .LVU83
 355 0000 0B88     		ldrh	r3, [r1]
 356              		.loc 1 158 29 view .LVU84
 357 0002 8362     		str	r3, [r0, #40]
 159:../../../GD32F4xx_Firmware_Library/GD32F4xx_standard_peripheral/Source/gd32f4xx_timer.c **** 
 160:../../../GD32F4xx_Firmware_Library/GD32F4xx_standard_peripheral/Source/gd32f4xx_timer.c ****     /* configure the counter direction and aligned mode */
 161:../../../GD32F4xx_Firmware_Library/GD32F4xx_standard_peripheral/Source/gd32f4xx_timer.c ****     if((TIMER0 == timer_periph) || (TIMER1 == timer_periph) || (TIMER2 == timer_periph)
 358              		.loc 1 161 5 is_stmt 1 view .LVU85
 359              		.loc 1 161 7 is_stmt 0 view .LVU86
 360 0004 204B     		ldr	r3, .L35
ARM GAS  /var/folders/h5/b3x4g50d3yx3hd9mlg8mn_600000gn/T//cc8A1z0P.s 			page 11


 361 0006 9842     		cmp	r0, r3
 362 0008 12D0     		beq	.L30
 363              		.loc 1 161 33 discriminator 1 view .LVU87
 364 000a B0F1804F 		cmp	r0, #1073741824
 365 000e 0FD0     		beq	.L30
 366              		.loc 1 161 61 discriminator 2 view .LVU88
 367 0010 A3F57C43 		sub	r3, r3, #64512
 368 0014 9842     		cmp	r0, r3
 369 0016 0BD0     		beq	.L30
 162:../../../GD32F4xx_Firmware_Library/GD32F4xx_standard_peripheral/Source/gd32f4xx_timer.c ****             || (TIMER3 == timer_periph) || (TIMER4 == timer_periph) || (TIMER7 == timer_periph)) {
 370              		.loc 1 162 13 view .LVU89
 371 0018 03F58063 		add	r3, r3, #1024
 372 001c 9842     		cmp	r0, r3
 373 001e 07D0     		beq	.L30
 374              		.loc 1 162 41 discriminator 1 view .LVU90
 375 0020 03F58063 		add	r3, r3, #1024
 376 0024 9842     		cmp	r0, r3
 377 0026 03D0     		beq	.L30
 378              		.loc 1 162 69 discriminator 2 view .LVU91
 379 0028 03F57843 		add	r3, r3, #63488
 380 002c 9842     		cmp	r0, r3
 381 002e 0BD1     		bne	.L31
 382              	.L30:
 163:../../../GD32F4xx_Firmware_Library/GD32F4xx_standard_peripheral/Source/gd32f4xx_timer.c ****         TIMER_CTL0(timer_periph) &= ~(uint32_t)(TIMER_CTL0_DIR | TIMER_CTL0_CAM);
 383              		.loc 1 163 9 is_stmt 1 view .LVU92
 384 0030 0368     		ldr	r3, [r0]
 385              		.loc 1 163 34 is_stmt 0 view .LVU93
 386 0032 23F07003 		bic	r3, r3, #112
 387 0036 0360     		str	r3, [r0]
 164:../../../GD32F4xx_Firmware_Library/GD32F4xx_standard_peripheral/Source/gd32f4xx_timer.c ****         TIMER_CTL0(timer_periph) |= (uint32_t)initpara->alignedmode;
 388              		.loc 1 164 9 is_stmt 1 view .LVU94
 389 0038 0368     		ldr	r3, [r0]
 390              		.loc 1 164 55 is_stmt 0 view .LVU95
 391 003a 4A88     		ldrh	r2, [r1, #2]
 392              		.loc 1 164 34 view .LVU96
 393 003c 1343     		orrs	r3, r3, r2
 394 003e 0360     		str	r3, [r0]
 165:../../../GD32F4xx_Firmware_Library/GD32F4xx_standard_peripheral/Source/gd32f4xx_timer.c ****         TIMER_CTL0(timer_periph) |= (uint32_t)initpara->counterdirection;
 395              		.loc 1 165 9 is_stmt 1 view .LVU97
 396 0040 0368     		ldr	r3, [r0]
 397              		.loc 1 165 55 is_stmt 0 view .LVU98
 398 0042 8A88     		ldrh	r2, [r1, #4]
 399              		.loc 1 165 34 view .LVU99
 400 0044 1343     		orrs	r3, r3, r2
 401 0046 0360     		str	r3, [r0]
 402              	.L31:
 166:../../../GD32F4xx_Firmware_Library/GD32F4xx_standard_peripheral/Source/gd32f4xx_timer.c ****     }
 167:../../../GD32F4xx_Firmware_Library/GD32F4xx_standard_peripheral/Source/gd32f4xx_timer.c **** 
 168:../../../GD32F4xx_Firmware_Library/GD32F4xx_standard_peripheral/Source/gd32f4xx_timer.c ****     /* configure the autoreload value */
 169:../../../GD32F4xx_Firmware_Library/GD32F4xx_standard_peripheral/Source/gd32f4xx_timer.c ****     TIMER_CAR(timer_periph) = (uint32_t)initpara->period;
 403              		.loc 1 169 5 is_stmt 1 view .LVU100
 404              		.loc 1 169 49 is_stmt 0 view .LVU101
 405 0048 8B68     		ldr	r3, [r1, #8]
 406              		.loc 1 169 29 view .LVU102
 407 004a C362     		str	r3, [r0, #44]
 170:../../../GD32F4xx_Firmware_Library/GD32F4xx_standard_peripheral/Source/gd32f4xx_timer.c **** 
 171:../../../GD32F4xx_Firmware_Library/GD32F4xx_standard_peripheral/Source/gd32f4xx_timer.c ****     if((TIMER5 != timer_periph) && (TIMER6 != timer_periph)) {
ARM GAS  /var/folders/h5/b3x4g50d3yx3hd9mlg8mn_600000gn/T//cc8A1z0P.s 			page 12


 408              		.loc 1 171 5 is_stmt 1 view .LVU103
 409              		.loc 1 171 7 is_stmt 0 view .LVU104
 410 004c 0F4B     		ldr	r3, .L35+4
 411 004e 9842     		cmp	r0, r3
 412 0050 0ED0     		beq	.L32
 413              		.loc 1 171 33 discriminator 1 view .LVU105
 414 0052 03F58063 		add	r3, r3, #1024
 415 0056 9842     		cmp	r0, r3
 416 0058 0AD0     		beq	.L32
 172:../../../GD32F4xx_Firmware_Library/GD32F4xx_standard_peripheral/Source/gd32f4xx_timer.c ****         /* reset the CKDIV bit */
 173:../../../GD32F4xx_Firmware_Library/GD32F4xx_standard_peripheral/Source/gd32f4xx_timer.c ****         TIMER_CTL0(timer_periph) &= ~(uint32_t)TIMER_CTL0_CKDIV;
 417              		.loc 1 173 9 is_stmt 1 view .LVU106
 418 005a 0368     		ldr	r3, [r0]
 419              		.loc 1 173 34 is_stmt 0 view .LVU107
 420 005c 23F44073 		bic	r3, r3, #768
 421 0060 0360     		str	r3, [r0]
 174:../../../GD32F4xx_Firmware_Library/GD32F4xx_standard_peripheral/Source/gd32f4xx_timer.c ****         TIMER_CTL0(timer_periph) |= (uint32_t)initpara->clockdivision;
 422              		.loc 1 174 9 is_stmt 1 view .LVU108
 423 0062 0368     		ldr	r3, [r0]
 424              		.loc 1 174 55 is_stmt 0 view .LVU109
 425 0064 CA88     		ldrh	r2, [r1, #6]
 426              		.loc 1 174 34 view .LVU110
 427 0066 1343     		orrs	r3, r3, r2
 428 0068 0360     		str	r3, [r0]
 175:../../../GD32F4xx_Firmware_Library/GD32F4xx_standard_peripheral/Source/gd32f4xx_timer.c ****     }
 176:../../../GD32F4xx_Firmware_Library/GD32F4xx_standard_peripheral/Source/gd32f4xx_timer.c **** 
 177:../../../GD32F4xx_Firmware_Library/GD32F4xx_standard_peripheral/Source/gd32f4xx_timer.c ****     if((TIMER0 == timer_periph) || (TIMER7 == timer_periph)) {
 429              		.loc 1 177 5 is_stmt 1 view .LVU111
 430              		.loc 1 177 7 is_stmt 0 view .LVU112
 431 006a 074B     		ldr	r3, .L35
 432 006c 9842     		cmp	r0, r3
 433 006e 07D0     		beq	.L33
 434              	.L32:
 435              		.loc 1 177 33 discriminator 1 view .LVU113
 436 0070 074B     		ldr	r3, .L35+8
 437 0072 9842     		cmp	r0, r3
 438 0074 04D0     		beq	.L33
 439              	.L34:
 178:../../../GD32F4xx_Firmware_Library/GD32F4xx_standard_peripheral/Source/gd32f4xx_timer.c ****         /* configure the repetition counter value */
 179:../../../GD32F4xx_Firmware_Library/GD32F4xx_standard_peripheral/Source/gd32f4xx_timer.c ****         TIMER_CREP(timer_periph) = (uint32_t)initpara->repetitioncounter;
 180:../../../GD32F4xx_Firmware_Library/GD32F4xx_standard_peripheral/Source/gd32f4xx_timer.c ****     }
 181:../../../GD32F4xx_Firmware_Library/GD32F4xx_standard_peripheral/Source/gd32f4xx_timer.c **** 
 182:../../../GD32F4xx_Firmware_Library/GD32F4xx_standard_peripheral/Source/gd32f4xx_timer.c ****     /* generate an update event */
 183:../../../GD32F4xx_Firmware_Library/GD32F4xx_standard_peripheral/Source/gd32f4xx_timer.c ****     TIMER_SWEVG(timer_periph) |= (uint32_t)TIMER_SWEVG_UPG;
 440              		.loc 1 183 5 is_stmt 1 view .LVU114
 441 0076 4369     		ldr	r3, [r0, #20]
 442              		.loc 1 183 31 is_stmt 0 view .LVU115
 443 0078 43F00103 		orr	r3, r3, #1
 444 007c 4361     		str	r3, [r0, #20]
 184:../../../GD32F4xx_Firmware_Library/GD32F4xx_standard_peripheral/Source/gd32f4xx_timer.c **** }
 445              		.loc 1 184 1 view .LVU116
 446 007e 7047     		bx	lr
 447              	.L33:
 179:../../../GD32F4xx_Firmware_Library/GD32F4xx_standard_peripheral/Source/gd32f4xx_timer.c ****     }
 448              		.loc 1 179 9 is_stmt 1 view .LVU117
 179:../../../GD32F4xx_Firmware_Library/GD32F4xx_standard_peripheral/Source/gd32f4xx_timer.c ****     }
 449              		.loc 1 179 54 is_stmt 0 view .LVU118
ARM GAS  /var/folders/h5/b3x4g50d3yx3hd9mlg8mn_600000gn/T//cc8A1z0P.s 			page 13


 450 0080 0B7B     		ldrb	r3, [r1, #12]	@ zero_extendqisi2
 179:../../../GD32F4xx_Firmware_Library/GD32F4xx_standard_peripheral/Source/gd32f4xx_timer.c ****     }
 451              		.loc 1 179 34 view .LVU119
 452 0082 0363     		str	r3, [r0, #48]
 453 0084 F7E7     		b	.L34
 454              	.L36:
 455 0086 00BF     		.align	2
 456              	.L35:
 457 0088 00000140 		.word	1073807360
 458 008c 00100040 		.word	1073745920
 459 0090 00040140 		.word	1073808384
 460              		.cfi_endproc
 461              	.LFE118:
 463              		.section	.text.timer_enable,"ax",%progbits
 464              		.align	1
 465              		.global	timer_enable
 466              		.syntax unified
 467              		.thumb
 468              		.thumb_func
 470              	timer_enable:
 471              	.LVL58:
 472              	.LFB119:
 185:../../../GD32F4xx_Firmware_Library/GD32F4xx_standard_peripheral/Source/gd32f4xx_timer.c **** 
 186:../../../GD32F4xx_Firmware_Library/GD32F4xx_standard_peripheral/Source/gd32f4xx_timer.c **** /*!
 187:../../../GD32F4xx_Firmware_Library/GD32F4xx_standard_peripheral/Source/gd32f4xx_timer.c ****     \brief      enable a TIMER
 188:../../../GD32F4xx_Firmware_Library/GD32F4xx_standard_peripheral/Source/gd32f4xx_timer.c ****     \param[in]  timer_periph: TIMERx(x=0..13)
 189:../../../GD32F4xx_Firmware_Library/GD32F4xx_standard_peripheral/Source/gd32f4xx_timer.c ****     \param[out] none
 190:../../../GD32F4xx_Firmware_Library/GD32F4xx_standard_peripheral/Source/gd32f4xx_timer.c ****     \retval     none
 191:../../../GD32F4xx_Firmware_Library/GD32F4xx_standard_peripheral/Source/gd32f4xx_timer.c **** */
 192:../../../GD32F4xx_Firmware_Library/GD32F4xx_standard_peripheral/Source/gd32f4xx_timer.c **** void timer_enable(uint32_t timer_periph)
 193:../../../GD32F4xx_Firmware_Library/GD32F4xx_standard_peripheral/Source/gd32f4xx_timer.c **** {
 473              		.loc 1 193 1 is_stmt 1 view -0
 474              		.cfi_startproc
 475              		@ args = 0, pretend = 0, frame = 0
 476              		@ frame_needed = 0, uses_anonymous_args = 0
 477              		@ link register save eliminated.
 194:../../../GD32F4xx_Firmware_Library/GD32F4xx_standard_peripheral/Source/gd32f4xx_timer.c ****     TIMER_CTL0(timer_periph) |= (uint32_t)TIMER_CTL0_CEN;
 478              		.loc 1 194 5 view .LVU121
 479 0000 0368     		ldr	r3, [r0]
 480              		.loc 1 194 30 is_stmt 0 view .LVU122
 481 0002 43F00103 		orr	r3, r3, #1
 482 0006 0360     		str	r3, [r0]
 195:../../../GD32F4xx_Firmware_Library/GD32F4xx_standard_peripheral/Source/gd32f4xx_timer.c **** }
 483              		.loc 1 195 1 view .LVU123
 484 0008 7047     		bx	lr
 485              		.cfi_endproc
 486              	.LFE119:
 488              		.section	.text.timer_disable,"ax",%progbits
 489              		.align	1
 490              		.global	timer_disable
 491              		.syntax unified
 492              		.thumb
 493              		.thumb_func
 495              	timer_disable:
 496              	.LVL59:
 497              	.LFB120:
 196:../../../GD32F4xx_Firmware_Library/GD32F4xx_standard_peripheral/Source/gd32f4xx_timer.c **** 
ARM GAS  /var/folders/h5/b3x4g50d3yx3hd9mlg8mn_600000gn/T//cc8A1z0P.s 			page 14


 197:../../../GD32F4xx_Firmware_Library/GD32F4xx_standard_peripheral/Source/gd32f4xx_timer.c **** /*!
 198:../../../GD32F4xx_Firmware_Library/GD32F4xx_standard_peripheral/Source/gd32f4xx_timer.c ****     \brief      disable a TIMER
 199:../../../GD32F4xx_Firmware_Library/GD32F4xx_standard_peripheral/Source/gd32f4xx_timer.c ****     \param[in]  timer_periph: TIMERx(x=0..13)
 200:../../../GD32F4xx_Firmware_Library/GD32F4xx_standard_peripheral/Source/gd32f4xx_timer.c ****     \param[out] none
 201:../../../GD32F4xx_Firmware_Library/GD32F4xx_standard_peripheral/Source/gd32f4xx_timer.c ****     \retval     none
 202:../../../GD32F4xx_Firmware_Library/GD32F4xx_standard_peripheral/Source/gd32f4xx_timer.c **** */
 203:../../../GD32F4xx_Firmware_Library/GD32F4xx_standard_peripheral/Source/gd32f4xx_timer.c **** void timer_disable(uint32_t timer_periph)
 204:../../../GD32F4xx_Firmware_Library/GD32F4xx_standard_peripheral/Source/gd32f4xx_timer.c **** {
 498              		.loc 1 204 1 is_stmt 1 view -0
 499              		.cfi_startproc
 500              		@ args = 0, pretend = 0, frame = 0
 501              		@ frame_needed = 0, uses_anonymous_args = 0
 502              		@ link register save eliminated.
 205:../../../GD32F4xx_Firmware_Library/GD32F4xx_standard_peripheral/Source/gd32f4xx_timer.c ****     TIMER_CTL0(timer_periph) &= ~(uint32_t)TIMER_CTL0_CEN;
 503              		.loc 1 205 5 view .LVU125
 504 0000 0368     		ldr	r3, [r0]
 505              		.loc 1 205 30 is_stmt 0 view .LVU126
 506 0002 23F00103 		bic	r3, r3, #1
 507 0006 0360     		str	r3, [r0]
 206:../../../GD32F4xx_Firmware_Library/GD32F4xx_standard_peripheral/Source/gd32f4xx_timer.c **** }
 508              		.loc 1 206 1 view .LVU127
 509 0008 7047     		bx	lr
 510              		.cfi_endproc
 511              	.LFE120:
 513              		.section	.text.timer_auto_reload_shadow_enable,"ax",%progbits
 514              		.align	1
 515              		.global	timer_auto_reload_shadow_enable
 516              		.syntax unified
 517              		.thumb
 518              		.thumb_func
 520              	timer_auto_reload_shadow_enable:
 521              	.LVL60:
 522              	.LFB121:
 207:../../../GD32F4xx_Firmware_Library/GD32F4xx_standard_peripheral/Source/gd32f4xx_timer.c **** 
 208:../../../GD32F4xx_Firmware_Library/GD32F4xx_standard_peripheral/Source/gd32f4xx_timer.c **** /*!
 209:../../../GD32F4xx_Firmware_Library/GD32F4xx_standard_peripheral/Source/gd32f4xx_timer.c ****     \brief      enable the auto reload shadow function
 210:../../../GD32F4xx_Firmware_Library/GD32F4xx_standard_peripheral/Source/gd32f4xx_timer.c ****     \param[in]  timer_periph: TIMERx(x=0..13)
 211:../../../GD32F4xx_Firmware_Library/GD32F4xx_standard_peripheral/Source/gd32f4xx_timer.c ****     \param[out] none
 212:../../../GD32F4xx_Firmware_Library/GD32F4xx_standard_peripheral/Source/gd32f4xx_timer.c ****     \retval     none
 213:../../../GD32F4xx_Firmware_Library/GD32F4xx_standard_peripheral/Source/gd32f4xx_timer.c **** */
 214:../../../GD32F4xx_Firmware_Library/GD32F4xx_standard_peripheral/Source/gd32f4xx_timer.c **** void timer_auto_reload_shadow_enable(uint32_t timer_periph)
 215:../../../GD32F4xx_Firmware_Library/GD32F4xx_standard_peripheral/Source/gd32f4xx_timer.c **** {
 523              		.loc 1 215 1 is_stmt 1 view -0
 524              		.cfi_startproc
 525              		@ args = 0, pretend = 0, frame = 0
 526              		@ frame_needed = 0, uses_anonymous_args = 0
 527              		@ link register save eliminated.
 216:../../../GD32F4xx_Firmware_Library/GD32F4xx_standard_peripheral/Source/gd32f4xx_timer.c ****     TIMER_CTL0(timer_periph) |= (uint32_t)TIMER_CTL0_ARSE;
 528              		.loc 1 216 5 view .LVU129
 529 0000 0368     		ldr	r3, [r0]
 530              		.loc 1 216 30 is_stmt 0 view .LVU130
 531 0002 43F08003 		orr	r3, r3, #128
 532 0006 0360     		str	r3, [r0]
 217:../../../GD32F4xx_Firmware_Library/GD32F4xx_standard_peripheral/Source/gd32f4xx_timer.c **** }
 533              		.loc 1 217 1 view .LVU131
 534 0008 7047     		bx	lr
 535              		.cfi_endproc
ARM GAS  /var/folders/h5/b3x4g50d3yx3hd9mlg8mn_600000gn/T//cc8A1z0P.s 			page 15


 536              	.LFE121:
 538              		.section	.text.timer_auto_reload_shadow_disable,"ax",%progbits
 539              		.align	1
 540              		.global	timer_auto_reload_shadow_disable
 541              		.syntax unified
 542              		.thumb
 543              		.thumb_func
 545              	timer_auto_reload_shadow_disable:
 546              	.LVL61:
 547              	.LFB122:
 218:../../../GD32F4xx_Firmware_Library/GD32F4xx_standard_peripheral/Source/gd32f4xx_timer.c **** 
 219:../../../GD32F4xx_Firmware_Library/GD32F4xx_standard_peripheral/Source/gd32f4xx_timer.c **** /*!
 220:../../../GD32F4xx_Firmware_Library/GD32F4xx_standard_peripheral/Source/gd32f4xx_timer.c ****     \brief      disable the auto reload shadow function
 221:../../../GD32F4xx_Firmware_Library/GD32F4xx_standard_peripheral/Source/gd32f4xx_timer.c ****     \param[in]  timer_periph: TIMERx(x=0..13)
 222:../../../GD32F4xx_Firmware_Library/GD32F4xx_standard_peripheral/Source/gd32f4xx_timer.c ****     \param[out] none
 223:../../../GD32F4xx_Firmware_Library/GD32F4xx_standard_peripheral/Source/gd32f4xx_timer.c ****     \retval     none
 224:../../../GD32F4xx_Firmware_Library/GD32F4xx_standard_peripheral/Source/gd32f4xx_timer.c **** */
 225:../../../GD32F4xx_Firmware_Library/GD32F4xx_standard_peripheral/Source/gd32f4xx_timer.c **** void timer_auto_reload_shadow_disable(uint32_t timer_periph)
 226:../../../GD32F4xx_Firmware_Library/GD32F4xx_standard_peripheral/Source/gd32f4xx_timer.c **** {
 548              		.loc 1 226 1 is_stmt 1 view -0
 549              		.cfi_startproc
 550              		@ args = 0, pretend = 0, frame = 0
 551              		@ frame_needed = 0, uses_anonymous_args = 0
 552              		@ link register save eliminated.
 227:../../../GD32F4xx_Firmware_Library/GD32F4xx_standard_peripheral/Source/gd32f4xx_timer.c ****     TIMER_CTL0(timer_periph) &= ~(uint32_t)TIMER_CTL0_ARSE;
 553              		.loc 1 227 5 view .LVU133
 554 0000 0368     		ldr	r3, [r0]
 555              		.loc 1 227 30 is_stmt 0 view .LVU134
 556 0002 23F08003 		bic	r3, r3, #128
 557 0006 0360     		str	r3, [r0]
 228:../../../GD32F4xx_Firmware_Library/GD32F4xx_standard_peripheral/Source/gd32f4xx_timer.c **** }
 558              		.loc 1 228 1 view .LVU135
 559 0008 7047     		bx	lr
 560              		.cfi_endproc
 561              	.LFE122:
 563              		.section	.text.timer_update_event_enable,"ax",%progbits
 564              		.align	1
 565              		.global	timer_update_event_enable
 566              		.syntax unified
 567              		.thumb
 568              		.thumb_func
 570              	timer_update_event_enable:
 571              	.LVL62:
 572              	.LFB123:
 229:../../../GD32F4xx_Firmware_Library/GD32F4xx_standard_peripheral/Source/gd32f4xx_timer.c **** 
 230:../../../GD32F4xx_Firmware_Library/GD32F4xx_standard_peripheral/Source/gd32f4xx_timer.c **** /*!
 231:../../../GD32F4xx_Firmware_Library/GD32F4xx_standard_peripheral/Source/gd32f4xx_timer.c ****     \brief      enable the update event
 232:../../../GD32F4xx_Firmware_Library/GD32F4xx_standard_peripheral/Source/gd32f4xx_timer.c ****     \param[in]  timer_periph: TIMERx(x=0..13)
 233:../../../GD32F4xx_Firmware_Library/GD32F4xx_standard_peripheral/Source/gd32f4xx_timer.c ****     \param[out] none
 234:../../../GD32F4xx_Firmware_Library/GD32F4xx_standard_peripheral/Source/gd32f4xx_timer.c ****     \retval     none
 235:../../../GD32F4xx_Firmware_Library/GD32F4xx_standard_peripheral/Source/gd32f4xx_timer.c **** */
 236:../../../GD32F4xx_Firmware_Library/GD32F4xx_standard_peripheral/Source/gd32f4xx_timer.c **** void timer_update_event_enable(uint32_t timer_periph)
 237:../../../GD32F4xx_Firmware_Library/GD32F4xx_standard_peripheral/Source/gd32f4xx_timer.c **** {
 573              		.loc 1 237 1 is_stmt 1 view -0
 574              		.cfi_startproc
 575              		@ args = 0, pretend = 0, frame = 0
 576              		@ frame_needed = 0, uses_anonymous_args = 0
ARM GAS  /var/folders/h5/b3x4g50d3yx3hd9mlg8mn_600000gn/T//cc8A1z0P.s 			page 16


 577              		@ link register save eliminated.
 238:../../../GD32F4xx_Firmware_Library/GD32F4xx_standard_peripheral/Source/gd32f4xx_timer.c ****     TIMER_CTL0(timer_periph) &= ~(uint32_t)TIMER_CTL0_UPDIS;
 578              		.loc 1 238 5 view .LVU137
 579 0000 0368     		ldr	r3, [r0]
 580              		.loc 1 238 30 is_stmt 0 view .LVU138
 581 0002 23F00203 		bic	r3, r3, #2
 582 0006 0360     		str	r3, [r0]
 239:../../../GD32F4xx_Firmware_Library/GD32F4xx_standard_peripheral/Source/gd32f4xx_timer.c **** }
 583              		.loc 1 239 1 view .LVU139
 584 0008 7047     		bx	lr
 585              		.cfi_endproc
 586              	.LFE123:
 588              		.section	.text.timer_update_event_disable,"ax",%progbits
 589              		.align	1
 590              		.global	timer_update_event_disable
 591              		.syntax unified
 592              		.thumb
 593              		.thumb_func
 595              	timer_update_event_disable:
 596              	.LVL63:
 597              	.LFB124:
 240:../../../GD32F4xx_Firmware_Library/GD32F4xx_standard_peripheral/Source/gd32f4xx_timer.c **** 
 241:../../../GD32F4xx_Firmware_Library/GD32F4xx_standard_peripheral/Source/gd32f4xx_timer.c **** /*!
 242:../../../GD32F4xx_Firmware_Library/GD32F4xx_standard_peripheral/Source/gd32f4xx_timer.c ****     \brief      disable the update event
 243:../../../GD32F4xx_Firmware_Library/GD32F4xx_standard_peripheral/Source/gd32f4xx_timer.c ****     \param[in]  timer_periph: TIMERx(x=0..13)
 244:../../../GD32F4xx_Firmware_Library/GD32F4xx_standard_peripheral/Source/gd32f4xx_timer.c ****     \param[out] none
 245:../../../GD32F4xx_Firmware_Library/GD32F4xx_standard_peripheral/Source/gd32f4xx_timer.c ****     \retval     none
 246:../../../GD32F4xx_Firmware_Library/GD32F4xx_standard_peripheral/Source/gd32f4xx_timer.c **** */
 247:../../../GD32F4xx_Firmware_Library/GD32F4xx_standard_peripheral/Source/gd32f4xx_timer.c **** void timer_update_event_disable(uint32_t timer_periph)
 248:../../../GD32F4xx_Firmware_Library/GD32F4xx_standard_peripheral/Source/gd32f4xx_timer.c **** {
 598              		.loc 1 248 1 is_stmt 1 view -0
 599              		.cfi_startproc
 600              		@ args = 0, pretend = 0, frame = 0
 601              		@ frame_needed = 0, uses_anonymous_args = 0
 602              		@ link register save eliminated.
 249:../../../GD32F4xx_Firmware_Library/GD32F4xx_standard_peripheral/Source/gd32f4xx_timer.c ****     TIMER_CTL0(timer_periph) |= (uint32_t) TIMER_CTL0_UPDIS;
 603              		.loc 1 249 5 view .LVU141
 604 0000 0368     		ldr	r3, [r0]
 605              		.loc 1 249 30 is_stmt 0 view .LVU142
 606 0002 43F00203 		orr	r3, r3, #2
 607 0006 0360     		str	r3, [r0]
 250:../../../GD32F4xx_Firmware_Library/GD32F4xx_standard_peripheral/Source/gd32f4xx_timer.c **** }
 608              		.loc 1 250 1 view .LVU143
 609 0008 7047     		bx	lr
 610              		.cfi_endproc
 611              	.LFE124:
 613              		.section	.text.timer_counter_alignment,"ax",%progbits
 614              		.align	1
 615              		.global	timer_counter_alignment
 616              		.syntax unified
 617              		.thumb
 618              		.thumb_func
 620              	timer_counter_alignment:
 621              	.LVL64:
 622              	.LFB125:
 251:../../../GD32F4xx_Firmware_Library/GD32F4xx_standard_peripheral/Source/gd32f4xx_timer.c **** 
 252:../../../GD32F4xx_Firmware_Library/GD32F4xx_standard_peripheral/Source/gd32f4xx_timer.c **** /*!
ARM GAS  /var/folders/h5/b3x4g50d3yx3hd9mlg8mn_600000gn/T//cc8A1z0P.s 			page 17


 253:../../../GD32F4xx_Firmware_Library/GD32F4xx_standard_peripheral/Source/gd32f4xx_timer.c ****     \brief      set TIMER counter alignment mode
 254:../../../GD32F4xx_Firmware_Library/GD32F4xx_standard_peripheral/Source/gd32f4xx_timer.c ****     \param[in]  timer_periph: TIMERx(x=0..4,7)
 255:../../../GD32F4xx_Firmware_Library/GD32F4xx_standard_peripheral/Source/gd32f4xx_timer.c ****     \param[in]  aligned:
 256:../../../GD32F4xx_Firmware_Library/GD32F4xx_standard_peripheral/Source/gd32f4xx_timer.c ****                 only one parameter can be selected which is shown as below:
 257:../../../GD32F4xx_Firmware_Library/GD32F4xx_standard_peripheral/Source/gd32f4xx_timer.c ****       \arg        TIMER_COUNTER_EDGE: edge-aligned mode
 258:../../../GD32F4xx_Firmware_Library/GD32F4xx_standard_peripheral/Source/gd32f4xx_timer.c ****       \arg        TIMER_COUNTER_CENTER_DOWN: center-aligned and counting down assert mode
 259:../../../GD32F4xx_Firmware_Library/GD32F4xx_standard_peripheral/Source/gd32f4xx_timer.c ****       \arg        TIMER_COUNTER_CENTER_UP: center-aligned and counting up assert mode
 260:../../../GD32F4xx_Firmware_Library/GD32F4xx_standard_peripheral/Source/gd32f4xx_timer.c ****       \arg        TIMER_COUNTER_CENTER_BOTH: center-aligned and counting up/down assert mode
 261:../../../GD32F4xx_Firmware_Library/GD32F4xx_standard_peripheral/Source/gd32f4xx_timer.c ****     \param[out] none
 262:../../../GD32F4xx_Firmware_Library/GD32F4xx_standard_peripheral/Source/gd32f4xx_timer.c ****     \retval     none
 263:../../../GD32F4xx_Firmware_Library/GD32F4xx_standard_peripheral/Source/gd32f4xx_timer.c **** */
 264:../../../GD32F4xx_Firmware_Library/GD32F4xx_standard_peripheral/Source/gd32f4xx_timer.c **** void timer_counter_alignment(uint32_t timer_periph, uint16_t aligned)
 265:../../../GD32F4xx_Firmware_Library/GD32F4xx_standard_peripheral/Source/gd32f4xx_timer.c **** {
 623              		.loc 1 265 1 is_stmt 1 view -0
 624              		.cfi_startproc
 625              		@ args = 0, pretend = 0, frame = 0
 626              		@ frame_needed = 0, uses_anonymous_args = 0
 627              		@ link register save eliminated.
 266:../../../GD32F4xx_Firmware_Library/GD32F4xx_standard_peripheral/Source/gd32f4xx_timer.c ****     TIMER_CTL0(timer_periph) &= ~(uint32_t)TIMER_CTL0_CAM;
 628              		.loc 1 266 5 view .LVU145
 629 0000 0368     		ldr	r3, [r0]
 630              		.loc 1 266 30 is_stmt 0 view .LVU146
 631 0002 23F06003 		bic	r3, r3, #96
 632 0006 0360     		str	r3, [r0]
 267:../../../GD32F4xx_Firmware_Library/GD32F4xx_standard_peripheral/Source/gd32f4xx_timer.c ****     TIMER_CTL0(timer_periph) |= (uint32_t)aligned;
 633              		.loc 1 267 5 is_stmt 1 view .LVU147
 634 0008 0368     		ldr	r3, [r0]
 635              		.loc 1 267 30 is_stmt 0 view .LVU148
 636 000a 0B43     		orrs	r3, r3, r1
 637 000c 0360     		str	r3, [r0]
 268:../../../GD32F4xx_Firmware_Library/GD32F4xx_standard_peripheral/Source/gd32f4xx_timer.c **** }
 638              		.loc 1 268 1 view .LVU149
 639 000e 7047     		bx	lr
 640              		.cfi_endproc
 641              	.LFE125:
 643              		.section	.text.timer_counter_up_direction,"ax",%progbits
 644              		.align	1
 645              		.global	timer_counter_up_direction
 646              		.syntax unified
 647              		.thumb
 648              		.thumb_func
 650              	timer_counter_up_direction:
 651              	.LVL65:
 652              	.LFB126:
 269:../../../GD32F4xx_Firmware_Library/GD32F4xx_standard_peripheral/Source/gd32f4xx_timer.c **** 
 270:../../../GD32F4xx_Firmware_Library/GD32F4xx_standard_peripheral/Source/gd32f4xx_timer.c **** /*!
 271:../../../GD32F4xx_Firmware_Library/GD32F4xx_standard_peripheral/Source/gd32f4xx_timer.c ****     \brief      set TIMER counter up direction
 272:../../../GD32F4xx_Firmware_Library/GD32F4xx_standard_peripheral/Source/gd32f4xx_timer.c ****     \param[in]  timer_periph: TIMERx(x=0..4,7)
 273:../../../GD32F4xx_Firmware_Library/GD32F4xx_standard_peripheral/Source/gd32f4xx_timer.c ****     \param[out] none
 274:../../../GD32F4xx_Firmware_Library/GD32F4xx_standard_peripheral/Source/gd32f4xx_timer.c ****     \retval     none
 275:../../../GD32F4xx_Firmware_Library/GD32F4xx_standard_peripheral/Source/gd32f4xx_timer.c **** */
 276:../../../GD32F4xx_Firmware_Library/GD32F4xx_standard_peripheral/Source/gd32f4xx_timer.c **** void timer_counter_up_direction(uint32_t timer_periph)
 277:../../../GD32F4xx_Firmware_Library/GD32F4xx_standard_peripheral/Source/gd32f4xx_timer.c **** {
 653              		.loc 1 277 1 is_stmt 1 view -0
 654              		.cfi_startproc
 655              		@ args = 0, pretend = 0, frame = 0
 656              		@ frame_needed = 0, uses_anonymous_args = 0
ARM GAS  /var/folders/h5/b3x4g50d3yx3hd9mlg8mn_600000gn/T//cc8A1z0P.s 			page 18


 657              		@ link register save eliminated.
 278:../../../GD32F4xx_Firmware_Library/GD32F4xx_standard_peripheral/Source/gd32f4xx_timer.c ****     TIMER_CTL0(timer_periph) &= ~(uint32_t)TIMER_CTL0_DIR;
 658              		.loc 1 278 5 view .LVU151
 659 0000 0368     		ldr	r3, [r0]
 660              		.loc 1 278 30 is_stmt 0 view .LVU152
 661 0002 23F01003 		bic	r3, r3, #16
 662 0006 0360     		str	r3, [r0]
 279:../../../GD32F4xx_Firmware_Library/GD32F4xx_standard_peripheral/Source/gd32f4xx_timer.c **** }
 663              		.loc 1 279 1 view .LVU153
 664 0008 7047     		bx	lr
 665              		.cfi_endproc
 666              	.LFE126:
 668              		.section	.text.timer_counter_down_direction,"ax",%progbits
 669              		.align	1
 670              		.global	timer_counter_down_direction
 671              		.syntax unified
 672              		.thumb
 673              		.thumb_func
 675              	timer_counter_down_direction:
 676              	.LVL66:
 677              	.LFB127:
 280:../../../GD32F4xx_Firmware_Library/GD32F4xx_standard_peripheral/Source/gd32f4xx_timer.c **** 
 281:../../../GD32F4xx_Firmware_Library/GD32F4xx_standard_peripheral/Source/gd32f4xx_timer.c **** /*!
 282:../../../GD32F4xx_Firmware_Library/GD32F4xx_standard_peripheral/Source/gd32f4xx_timer.c ****     \brief      set TIMER counter down direction
 283:../../../GD32F4xx_Firmware_Library/GD32F4xx_standard_peripheral/Source/gd32f4xx_timer.c ****     \param[in]  timer_periph: TIMERx(x=0..4,7)
 284:../../../GD32F4xx_Firmware_Library/GD32F4xx_standard_peripheral/Source/gd32f4xx_timer.c ****     \param[out] none
 285:../../../GD32F4xx_Firmware_Library/GD32F4xx_standard_peripheral/Source/gd32f4xx_timer.c ****     \retval     none
 286:../../../GD32F4xx_Firmware_Library/GD32F4xx_standard_peripheral/Source/gd32f4xx_timer.c **** */
 287:../../../GD32F4xx_Firmware_Library/GD32F4xx_standard_peripheral/Source/gd32f4xx_timer.c **** void timer_counter_down_direction(uint32_t timer_periph)
 288:../../../GD32F4xx_Firmware_Library/GD32F4xx_standard_peripheral/Source/gd32f4xx_timer.c **** {
 678              		.loc 1 288 1 is_stmt 1 view -0
 679              		.cfi_startproc
 680              		@ args = 0, pretend = 0, frame = 0
 681              		@ frame_needed = 0, uses_anonymous_args = 0
 682              		@ link register save eliminated.
 289:../../../GD32F4xx_Firmware_Library/GD32F4xx_standard_peripheral/Source/gd32f4xx_timer.c ****     TIMER_CTL0(timer_periph) |= (uint32_t)TIMER_CTL0_DIR;
 683              		.loc 1 289 5 view .LVU155
 684 0000 0368     		ldr	r3, [r0]
 685              		.loc 1 289 30 is_stmt 0 view .LVU156
 686 0002 43F01003 		orr	r3, r3, #16
 687 0006 0360     		str	r3, [r0]
 290:../../../GD32F4xx_Firmware_Library/GD32F4xx_standard_peripheral/Source/gd32f4xx_timer.c **** }
 688              		.loc 1 290 1 view .LVU157
 689 0008 7047     		bx	lr
 690              		.cfi_endproc
 691              	.LFE127:
 693              		.section	.text.timer_prescaler_config,"ax",%progbits
 694              		.align	1
 695              		.global	timer_prescaler_config
 696              		.syntax unified
 697              		.thumb
 698              		.thumb_func
 700              	timer_prescaler_config:
 701              	.LVL67:
 702              	.LFB128:
 291:../../../GD32F4xx_Firmware_Library/GD32F4xx_standard_peripheral/Source/gd32f4xx_timer.c **** 
 292:../../../GD32F4xx_Firmware_Library/GD32F4xx_standard_peripheral/Source/gd32f4xx_timer.c **** /*!
ARM GAS  /var/folders/h5/b3x4g50d3yx3hd9mlg8mn_600000gn/T//cc8A1z0P.s 			page 19


 293:../../../GD32F4xx_Firmware_Library/GD32F4xx_standard_peripheral/Source/gd32f4xx_timer.c ****     \brief      configure TIMER prescaler
 294:../../../GD32F4xx_Firmware_Library/GD32F4xx_standard_peripheral/Source/gd32f4xx_timer.c ****     \param[in]  timer_periph: TIMERx(x=0..13)
 295:../../../GD32F4xx_Firmware_Library/GD32F4xx_standard_peripheral/Source/gd32f4xx_timer.c ****     \param[in]  prescaler: prescaler value,0~65535
 296:../../../GD32F4xx_Firmware_Library/GD32F4xx_standard_peripheral/Source/gd32f4xx_timer.c ****     \param[in]  pscreload: prescaler reload mode
 297:../../../GD32F4xx_Firmware_Library/GD32F4xx_standard_peripheral/Source/gd32f4xx_timer.c ****                 only one parameter can be selected which is shown as below:
 298:../../../GD32F4xx_Firmware_Library/GD32F4xx_standard_peripheral/Source/gd32f4xx_timer.c ****       \arg        TIMER_PSC_RELOAD_NOW: the prescaler is loaded right now
 299:../../../GD32F4xx_Firmware_Library/GD32F4xx_standard_peripheral/Source/gd32f4xx_timer.c ****       \arg        TIMER_PSC_RELOAD_UPDATE: the prescaler is loaded at the next update event
 300:../../../GD32F4xx_Firmware_Library/GD32F4xx_standard_peripheral/Source/gd32f4xx_timer.c ****     \param[out] none
 301:../../../GD32F4xx_Firmware_Library/GD32F4xx_standard_peripheral/Source/gd32f4xx_timer.c ****     \retval     none
 302:../../../GD32F4xx_Firmware_Library/GD32F4xx_standard_peripheral/Source/gd32f4xx_timer.c **** */
 303:../../../GD32F4xx_Firmware_Library/GD32F4xx_standard_peripheral/Source/gd32f4xx_timer.c **** void timer_prescaler_config(uint32_t timer_periph, uint16_t prescaler, uint8_t pscreload)
 304:../../../GD32F4xx_Firmware_Library/GD32F4xx_standard_peripheral/Source/gd32f4xx_timer.c **** {
 703              		.loc 1 304 1 is_stmt 1 view -0
 704              		.cfi_startproc
 705              		@ args = 0, pretend = 0, frame = 0
 706              		@ frame_needed = 0, uses_anonymous_args = 0
 707              		@ link register save eliminated.
 305:../../../GD32F4xx_Firmware_Library/GD32F4xx_standard_peripheral/Source/gd32f4xx_timer.c ****     TIMER_PSC(timer_periph) = (uint32_t)prescaler;
 708              		.loc 1 305 5 view .LVU159
 709              		.loc 1 305 29 is_stmt 0 view .LVU160
 710 0000 8162     		str	r1, [r0, #40]
 306:../../../GD32F4xx_Firmware_Library/GD32F4xx_standard_peripheral/Source/gd32f4xx_timer.c **** 
 307:../../../GD32F4xx_Firmware_Library/GD32F4xx_standard_peripheral/Source/gd32f4xx_timer.c ****     if(TIMER_PSC_RELOAD_NOW == pscreload) {
 711              		.loc 1 307 5 is_stmt 1 view .LVU161
 712              		.loc 1 307 7 is_stmt 0 view .LVU162
 713 0002 1AB9     		cbnz	r2, .L46
 308:../../../GD32F4xx_Firmware_Library/GD32F4xx_standard_peripheral/Source/gd32f4xx_timer.c ****         TIMER_SWEVG(timer_periph) |= (uint32_t)TIMER_SWEVG_UPG;
 714              		.loc 1 308 9 is_stmt 1 view .LVU163
 715 0004 4369     		ldr	r3, [r0, #20]
 716              		.loc 1 308 35 is_stmt 0 view .LVU164
 717 0006 43F00103 		orr	r3, r3, #1
 718 000a 4361     		str	r3, [r0, #20]
 719              	.L46:
 309:../../../GD32F4xx_Firmware_Library/GD32F4xx_standard_peripheral/Source/gd32f4xx_timer.c ****     }
 310:../../../GD32F4xx_Firmware_Library/GD32F4xx_standard_peripheral/Source/gd32f4xx_timer.c **** }
 720              		.loc 1 310 1 view .LVU165
 721 000c 7047     		bx	lr
 722              		.cfi_endproc
 723              	.LFE128:
 725              		.section	.text.timer_repetition_value_config,"ax",%progbits
 726              		.align	1
 727              		.global	timer_repetition_value_config
 728              		.syntax unified
 729              		.thumb
 730              		.thumb_func
 732              	timer_repetition_value_config:
 733              	.LVL68:
 734              	.LFB129:
 311:../../../GD32F4xx_Firmware_Library/GD32F4xx_standard_peripheral/Source/gd32f4xx_timer.c **** 
 312:../../../GD32F4xx_Firmware_Library/GD32F4xx_standard_peripheral/Source/gd32f4xx_timer.c **** /*!
 313:../../../GD32F4xx_Firmware_Library/GD32F4xx_standard_peripheral/Source/gd32f4xx_timer.c ****     \brief      configure TIMER repetition register value
 314:../../../GD32F4xx_Firmware_Library/GD32F4xx_standard_peripheral/Source/gd32f4xx_timer.c ****     \param[in]  timer_periph: TIMERx(x=0,7)
 315:../../../GD32F4xx_Firmware_Library/GD32F4xx_standard_peripheral/Source/gd32f4xx_timer.c ****     \param[in]  repetition: the counter repetition value,0~255
 316:../../../GD32F4xx_Firmware_Library/GD32F4xx_standard_peripheral/Source/gd32f4xx_timer.c ****     \param[out] none
 317:../../../GD32F4xx_Firmware_Library/GD32F4xx_standard_peripheral/Source/gd32f4xx_timer.c ****     \retval     none
 318:../../../GD32F4xx_Firmware_Library/GD32F4xx_standard_peripheral/Source/gd32f4xx_timer.c **** */
 319:../../../GD32F4xx_Firmware_Library/GD32F4xx_standard_peripheral/Source/gd32f4xx_timer.c **** void timer_repetition_value_config(uint32_t timer_periph, uint16_t repetition)
ARM GAS  /var/folders/h5/b3x4g50d3yx3hd9mlg8mn_600000gn/T//cc8A1z0P.s 			page 20


 320:../../../GD32F4xx_Firmware_Library/GD32F4xx_standard_peripheral/Source/gd32f4xx_timer.c **** {
 735              		.loc 1 320 1 is_stmt 1 view -0
 736              		.cfi_startproc
 737              		@ args = 0, pretend = 0, frame = 0
 738              		@ frame_needed = 0, uses_anonymous_args = 0
 739              		@ link register save eliminated.
 321:../../../GD32F4xx_Firmware_Library/GD32F4xx_standard_peripheral/Source/gd32f4xx_timer.c ****     TIMER_CREP(timer_periph) = (uint32_t)repetition;
 740              		.loc 1 321 5 view .LVU167
 741              		.loc 1 321 30 is_stmt 0 view .LVU168
 742 0000 0163     		str	r1, [r0, #48]
 322:../../../GD32F4xx_Firmware_Library/GD32F4xx_standard_peripheral/Source/gd32f4xx_timer.c **** }
 743              		.loc 1 322 1 view .LVU169
 744 0002 7047     		bx	lr
 745              		.cfi_endproc
 746              	.LFE129:
 748              		.section	.text.timer_autoreload_value_config,"ax",%progbits
 749              		.align	1
 750              		.global	timer_autoreload_value_config
 751              		.syntax unified
 752              		.thumb
 753              		.thumb_func
 755              	timer_autoreload_value_config:
 756              	.LVL69:
 757              	.LFB130:
 323:../../../GD32F4xx_Firmware_Library/GD32F4xx_standard_peripheral/Source/gd32f4xx_timer.c **** 
 324:../../../GD32F4xx_Firmware_Library/GD32F4xx_standard_peripheral/Source/gd32f4xx_timer.c **** /*!
 325:../../../GD32F4xx_Firmware_Library/GD32F4xx_standard_peripheral/Source/gd32f4xx_timer.c ****     \brief      configure TIMER autoreload register value
 326:../../../GD32F4xx_Firmware_Library/GD32F4xx_standard_peripheral/Source/gd32f4xx_timer.c ****     \param[in]  timer_periph: TIMERx(x=0..13)
 327:../../../GD32F4xx_Firmware_Library/GD32F4xx_standard_peripheral/Source/gd32f4xx_timer.c ****     \param[in]  autoreload: the counter auto-reload value
 328:../../../GD32F4xx_Firmware_Library/GD32F4xx_standard_peripheral/Source/gd32f4xx_timer.c ****     \param[out] none
 329:../../../GD32F4xx_Firmware_Library/GD32F4xx_standard_peripheral/Source/gd32f4xx_timer.c ****     \retval     none
 330:../../../GD32F4xx_Firmware_Library/GD32F4xx_standard_peripheral/Source/gd32f4xx_timer.c **** */
 331:../../../GD32F4xx_Firmware_Library/GD32F4xx_standard_peripheral/Source/gd32f4xx_timer.c **** void timer_autoreload_value_config(uint32_t timer_periph, uint32_t autoreload)
 332:../../../GD32F4xx_Firmware_Library/GD32F4xx_standard_peripheral/Source/gd32f4xx_timer.c **** {
 758              		.loc 1 332 1 is_stmt 1 view -0
 759              		.cfi_startproc
 760              		@ args = 0, pretend = 0, frame = 0
 761              		@ frame_needed = 0, uses_anonymous_args = 0
 762              		@ link register save eliminated.
 333:../../../GD32F4xx_Firmware_Library/GD32F4xx_standard_peripheral/Source/gd32f4xx_timer.c ****     TIMER_CAR(timer_periph) = (uint32_t)autoreload;
 763              		.loc 1 333 5 view .LVU171
 764              		.loc 1 333 29 is_stmt 0 view .LVU172
 765 0000 C162     		str	r1, [r0, #44]
 334:../../../GD32F4xx_Firmware_Library/GD32F4xx_standard_peripheral/Source/gd32f4xx_timer.c **** }
 766              		.loc 1 334 1 view .LVU173
 767 0002 7047     		bx	lr
 768              		.cfi_endproc
 769              	.LFE130:
 771              		.section	.text.timer_counter_value_config,"ax",%progbits
 772              		.align	1
 773              		.global	timer_counter_value_config
 774              		.syntax unified
 775              		.thumb
 776              		.thumb_func
 778              	timer_counter_value_config:
 779              	.LVL70:
 780              	.LFB131:
ARM GAS  /var/folders/h5/b3x4g50d3yx3hd9mlg8mn_600000gn/T//cc8A1z0P.s 			page 21


 335:../../../GD32F4xx_Firmware_Library/GD32F4xx_standard_peripheral/Source/gd32f4xx_timer.c **** 
 336:../../../GD32F4xx_Firmware_Library/GD32F4xx_standard_peripheral/Source/gd32f4xx_timer.c **** /*!
 337:../../../GD32F4xx_Firmware_Library/GD32F4xx_standard_peripheral/Source/gd32f4xx_timer.c ****     \brief      configure TIMER counter register value
 338:../../../GD32F4xx_Firmware_Library/GD32F4xx_standard_peripheral/Source/gd32f4xx_timer.c ****     \param[in]  timer_periph: TIMERx(x=0..13)
 339:../../../GD32F4xx_Firmware_Library/GD32F4xx_standard_peripheral/Source/gd32f4xx_timer.c ****     \param[in]  counter: the counter value,0~65535
 340:../../../GD32F4xx_Firmware_Library/GD32F4xx_standard_peripheral/Source/gd32f4xx_timer.c ****     \param[out] none
 341:../../../GD32F4xx_Firmware_Library/GD32F4xx_standard_peripheral/Source/gd32f4xx_timer.c ****     \retval     none
 342:../../../GD32F4xx_Firmware_Library/GD32F4xx_standard_peripheral/Source/gd32f4xx_timer.c **** */
 343:../../../GD32F4xx_Firmware_Library/GD32F4xx_standard_peripheral/Source/gd32f4xx_timer.c **** void timer_counter_value_config(uint32_t timer_periph, uint32_t counter)
 344:../../../GD32F4xx_Firmware_Library/GD32F4xx_standard_peripheral/Source/gd32f4xx_timer.c **** {
 781              		.loc 1 344 1 is_stmt 1 view -0
 782              		.cfi_startproc
 783              		@ args = 0, pretend = 0, frame = 0
 784              		@ frame_needed = 0, uses_anonymous_args = 0
 785              		@ link register save eliminated.
 345:../../../GD32F4xx_Firmware_Library/GD32F4xx_standard_peripheral/Source/gd32f4xx_timer.c ****     TIMER_CNT(timer_periph) = (uint32_t)counter;
 786              		.loc 1 345 5 view .LVU175
 787              		.loc 1 345 29 is_stmt 0 view .LVU176
 788 0000 4162     		str	r1, [r0, #36]
 346:../../../GD32F4xx_Firmware_Library/GD32F4xx_standard_peripheral/Source/gd32f4xx_timer.c **** }
 789              		.loc 1 346 1 view .LVU177
 790 0002 7047     		bx	lr
 791              		.cfi_endproc
 792              	.LFE131:
 794              		.section	.text.timer_counter_read,"ax",%progbits
 795              		.align	1
 796              		.global	timer_counter_read
 797              		.syntax unified
 798              		.thumb
 799              		.thumb_func
 801              	timer_counter_read:
 802              	.LVL71:
 803              	.LFB132:
 347:../../../GD32F4xx_Firmware_Library/GD32F4xx_standard_peripheral/Source/gd32f4xx_timer.c **** 
 348:../../../GD32F4xx_Firmware_Library/GD32F4xx_standard_peripheral/Source/gd32f4xx_timer.c **** /*!
 349:../../../GD32F4xx_Firmware_Library/GD32F4xx_standard_peripheral/Source/gd32f4xx_timer.c ****     \brief      read TIMER counter value
 350:../../../GD32F4xx_Firmware_Library/GD32F4xx_standard_peripheral/Source/gd32f4xx_timer.c ****     \param[in]  timer_periph: TIMERx(x=0..13)
 351:../../../GD32F4xx_Firmware_Library/GD32F4xx_standard_peripheral/Source/gd32f4xx_timer.c ****     \param[out] none
 352:../../../GD32F4xx_Firmware_Library/GD32F4xx_standard_peripheral/Source/gd32f4xx_timer.c ****     \retval     counter value
 353:../../../GD32F4xx_Firmware_Library/GD32F4xx_standard_peripheral/Source/gd32f4xx_timer.c **** */
 354:../../../GD32F4xx_Firmware_Library/GD32F4xx_standard_peripheral/Source/gd32f4xx_timer.c **** uint32_t timer_counter_read(uint32_t timer_periph)
 355:../../../GD32F4xx_Firmware_Library/GD32F4xx_standard_peripheral/Source/gd32f4xx_timer.c **** {
 804              		.loc 1 355 1 is_stmt 1 view -0
 805              		.cfi_startproc
 806              		@ args = 0, pretend = 0, frame = 0
 807              		@ frame_needed = 0, uses_anonymous_args = 0
 808              		@ link register save eliminated.
 356:../../../GD32F4xx_Firmware_Library/GD32F4xx_standard_peripheral/Source/gd32f4xx_timer.c ****     uint32_t count_value = 0U;
 809              		.loc 1 356 5 view .LVU179
 357:../../../GD32F4xx_Firmware_Library/GD32F4xx_standard_peripheral/Source/gd32f4xx_timer.c ****     count_value = TIMER_CNT(timer_periph);
 810              		.loc 1 357 5 view .LVU180
 811              		.loc 1 357 17 is_stmt 0 view .LVU181
 812 0000 406A     		ldr	r0, [r0, #36]
 813              	.LVL72:
 358:../../../GD32F4xx_Firmware_Library/GD32F4xx_standard_peripheral/Source/gd32f4xx_timer.c ****     return (count_value);
 814              		.loc 1 358 5 is_stmt 1 view .LVU182
 359:../../../GD32F4xx_Firmware_Library/GD32F4xx_standard_peripheral/Source/gd32f4xx_timer.c **** }
ARM GAS  /var/folders/h5/b3x4g50d3yx3hd9mlg8mn_600000gn/T//cc8A1z0P.s 			page 22


 815              		.loc 1 359 1 is_stmt 0 view .LVU183
 816 0002 7047     		bx	lr
 817              		.cfi_endproc
 818              	.LFE132:
 820              		.section	.text.timer_prescaler_read,"ax",%progbits
 821              		.align	1
 822              		.global	timer_prescaler_read
 823              		.syntax unified
 824              		.thumb
 825              		.thumb_func
 827              	timer_prescaler_read:
 828              	.LVL73:
 829              	.LFB133:
 360:../../../GD32F4xx_Firmware_Library/GD32F4xx_standard_peripheral/Source/gd32f4xx_timer.c **** 
 361:../../../GD32F4xx_Firmware_Library/GD32F4xx_standard_peripheral/Source/gd32f4xx_timer.c **** /*!
 362:../../../GD32F4xx_Firmware_Library/GD32F4xx_standard_peripheral/Source/gd32f4xx_timer.c ****     \brief      read TIMER prescaler value
 363:../../../GD32F4xx_Firmware_Library/GD32F4xx_standard_peripheral/Source/gd32f4xx_timer.c ****     \param[in]  timer_periph: TIMERx(x=0..13)
 364:../../../GD32F4xx_Firmware_Library/GD32F4xx_standard_peripheral/Source/gd32f4xx_timer.c ****     \param[out] none
 365:../../../GD32F4xx_Firmware_Library/GD32F4xx_standard_peripheral/Source/gd32f4xx_timer.c ****     \retval     prescaler register value
 366:../../../GD32F4xx_Firmware_Library/GD32F4xx_standard_peripheral/Source/gd32f4xx_timer.c **** */
 367:../../../GD32F4xx_Firmware_Library/GD32F4xx_standard_peripheral/Source/gd32f4xx_timer.c **** uint16_t timer_prescaler_read(uint32_t timer_periph)
 368:../../../GD32F4xx_Firmware_Library/GD32F4xx_standard_peripheral/Source/gd32f4xx_timer.c **** {
 830              		.loc 1 368 1 is_stmt 1 view -0
 831              		.cfi_startproc
 832              		@ args = 0, pretend = 0, frame = 0
 833              		@ frame_needed = 0, uses_anonymous_args = 0
 834              		@ link register save eliminated.
 369:../../../GD32F4xx_Firmware_Library/GD32F4xx_standard_peripheral/Source/gd32f4xx_timer.c ****     uint16_t prescaler_value = 0U;
 835              		.loc 1 369 5 view .LVU185
 370:../../../GD32F4xx_Firmware_Library/GD32F4xx_standard_peripheral/Source/gd32f4xx_timer.c ****     prescaler_value = (uint16_t)(TIMER_PSC(timer_periph));
 836              		.loc 1 370 5 view .LVU186
 837              		.loc 1 370 34 is_stmt 0 view .LVU187
 838 0000 806A     		ldr	r0, [r0, #40]
 839              	.LVL74:
 371:../../../GD32F4xx_Firmware_Library/GD32F4xx_standard_peripheral/Source/gd32f4xx_timer.c ****     return (prescaler_value);
 840              		.loc 1 371 5 is_stmt 1 view .LVU188
 372:../../../GD32F4xx_Firmware_Library/GD32F4xx_standard_peripheral/Source/gd32f4xx_timer.c **** }
 841              		.loc 1 372 1 is_stmt 0 view .LVU189
 842 0002 80B2     		uxth	r0, r0
 843              		.loc 1 372 1 view .LVU190
 844 0004 7047     		bx	lr
 845              		.cfi_endproc
 846              	.LFE133:
 848              		.section	.text.timer_single_pulse_mode_config,"ax",%progbits
 849              		.align	1
 850              		.global	timer_single_pulse_mode_config
 851              		.syntax unified
 852              		.thumb
 853              		.thumb_func
 855              	timer_single_pulse_mode_config:
 856              	.LVL75:
 857              	.LFB134:
 373:../../../GD32F4xx_Firmware_Library/GD32F4xx_standard_peripheral/Source/gd32f4xx_timer.c **** 
 374:../../../GD32F4xx_Firmware_Library/GD32F4xx_standard_peripheral/Source/gd32f4xx_timer.c **** /*!
 375:../../../GD32F4xx_Firmware_Library/GD32F4xx_standard_peripheral/Source/gd32f4xx_timer.c ****     \brief      configure TIMER single pulse mode
 376:../../../GD32F4xx_Firmware_Library/GD32F4xx_standard_peripheral/Source/gd32f4xx_timer.c ****     \param[in]  timer_periph: TIMERx(x=0..8,11)
 377:../../../GD32F4xx_Firmware_Library/GD32F4xx_standard_peripheral/Source/gd32f4xx_timer.c ****     \param[in]  spmode:
ARM GAS  /var/folders/h5/b3x4g50d3yx3hd9mlg8mn_600000gn/T//cc8A1z0P.s 			page 23


 378:../../../GD32F4xx_Firmware_Library/GD32F4xx_standard_peripheral/Source/gd32f4xx_timer.c ****                 only one parameter can be selected which is shown as below:
 379:../../../GD32F4xx_Firmware_Library/GD32F4xx_standard_peripheral/Source/gd32f4xx_timer.c ****       \arg        TIMER_SP_MODE_SINGLE: single pulse mode
 380:../../../GD32F4xx_Firmware_Library/GD32F4xx_standard_peripheral/Source/gd32f4xx_timer.c ****       \arg        TIMER_SP_MODE_REPETITIVE: repetitive pulse mode
 381:../../../GD32F4xx_Firmware_Library/GD32F4xx_standard_peripheral/Source/gd32f4xx_timer.c ****     \param[out] none
 382:../../../GD32F4xx_Firmware_Library/GD32F4xx_standard_peripheral/Source/gd32f4xx_timer.c ****     \retval     none
 383:../../../GD32F4xx_Firmware_Library/GD32F4xx_standard_peripheral/Source/gd32f4xx_timer.c **** */
 384:../../../GD32F4xx_Firmware_Library/GD32F4xx_standard_peripheral/Source/gd32f4xx_timer.c **** void timer_single_pulse_mode_config(uint32_t timer_periph, uint32_t spmode)
 385:../../../GD32F4xx_Firmware_Library/GD32F4xx_standard_peripheral/Source/gd32f4xx_timer.c **** {
 858              		.loc 1 385 1 is_stmt 1 view -0
 859              		.cfi_startproc
 860              		@ args = 0, pretend = 0, frame = 0
 861              		@ frame_needed = 0, uses_anonymous_args = 0
 862              		@ link register save eliminated.
 386:../../../GD32F4xx_Firmware_Library/GD32F4xx_standard_peripheral/Source/gd32f4xx_timer.c ****     if(TIMER_SP_MODE_SINGLE == spmode) {
 863              		.loc 1 386 5 view .LVU192
 864              		.loc 1 386 7 is_stmt 0 view .LVU193
 865 0000 21B9     		cbnz	r1, .L54
 387:../../../GD32F4xx_Firmware_Library/GD32F4xx_standard_peripheral/Source/gd32f4xx_timer.c ****         TIMER_CTL0(timer_periph) |= (uint32_t)TIMER_CTL0_SPM;
 866              		.loc 1 387 9 is_stmt 1 view .LVU194
 867 0002 0368     		ldr	r3, [r0]
 868              		.loc 1 387 34 is_stmt 0 view .LVU195
 869 0004 43F00803 		orr	r3, r3, #8
 870 0008 0360     		str	r3, [r0]
 871 000a 7047     		bx	lr
 872              	.L54:
 388:../../../GD32F4xx_Firmware_Library/GD32F4xx_standard_peripheral/Source/gd32f4xx_timer.c ****     } else if(TIMER_SP_MODE_REPETITIVE == spmode) {
 873              		.loc 1 388 12 is_stmt 1 view .LVU196
 874              		.loc 1 388 14 is_stmt 0 view .LVU197
 875 000c 0129     		cmp	r1, #1
 876 000e 00D0     		beq	.L56
 877              	.L53:
 389:../../../GD32F4xx_Firmware_Library/GD32F4xx_standard_peripheral/Source/gd32f4xx_timer.c ****         TIMER_CTL0(timer_periph) &= ~((uint32_t)TIMER_CTL0_SPM);
 390:../../../GD32F4xx_Firmware_Library/GD32F4xx_standard_peripheral/Source/gd32f4xx_timer.c ****     } else {
 391:../../../GD32F4xx_Firmware_Library/GD32F4xx_standard_peripheral/Source/gd32f4xx_timer.c ****         /* illegal parameters */
 392:../../../GD32F4xx_Firmware_Library/GD32F4xx_standard_peripheral/Source/gd32f4xx_timer.c ****     }
 393:../../../GD32F4xx_Firmware_Library/GD32F4xx_standard_peripheral/Source/gd32f4xx_timer.c **** }
 878              		.loc 1 393 1 view .LVU198
 879 0010 7047     		bx	lr
 880              	.L56:
 389:../../../GD32F4xx_Firmware_Library/GD32F4xx_standard_peripheral/Source/gd32f4xx_timer.c ****         TIMER_CTL0(timer_periph) &= ~((uint32_t)TIMER_CTL0_SPM);
 881              		.loc 1 389 9 is_stmt 1 view .LVU199
 882 0012 0368     		ldr	r3, [r0]
 389:../../../GD32F4xx_Firmware_Library/GD32F4xx_standard_peripheral/Source/gd32f4xx_timer.c ****         TIMER_CTL0(timer_periph) &= ~((uint32_t)TIMER_CTL0_SPM);
 883              		.loc 1 389 34 is_stmt 0 view .LVU200
 884 0014 23F00803 		bic	r3, r3, #8
 885 0018 0360     		str	r3, [r0]
 392:../../../GD32F4xx_Firmware_Library/GD32F4xx_standard_peripheral/Source/gd32f4xx_timer.c **** }
 886              		.loc 1 392 5 is_stmt 1 view .LVU201
 887              		.loc 1 393 1 is_stmt 0 view .LVU202
 888 001a F9E7     		b	.L53
 889              		.cfi_endproc
 890              	.LFE134:
 892              		.section	.text.timer_update_source_config,"ax",%progbits
 893              		.align	1
 894              		.global	timer_update_source_config
 895              		.syntax unified
 896              		.thumb
ARM GAS  /var/folders/h5/b3x4g50d3yx3hd9mlg8mn_600000gn/T//cc8A1z0P.s 			page 24


 897              		.thumb_func
 899              	timer_update_source_config:
 900              	.LVL76:
 901              	.LFB135:
 394:../../../GD32F4xx_Firmware_Library/GD32F4xx_standard_peripheral/Source/gd32f4xx_timer.c **** 
 395:../../../GD32F4xx_Firmware_Library/GD32F4xx_standard_peripheral/Source/gd32f4xx_timer.c **** /*!
 396:../../../GD32F4xx_Firmware_Library/GD32F4xx_standard_peripheral/Source/gd32f4xx_timer.c ****     \brief      configure TIMER update source
 397:../../../GD32F4xx_Firmware_Library/GD32F4xx_standard_peripheral/Source/gd32f4xx_timer.c ****     \param[in]  timer_periph: TIMERx(x=0..13)
 398:../../../GD32F4xx_Firmware_Library/GD32F4xx_standard_peripheral/Source/gd32f4xx_timer.c ****     \param[in]  update:
 399:../../../GD32F4xx_Firmware_Library/GD32F4xx_standard_peripheral/Source/gd32f4xx_timer.c ****                 only one parameter can be selected which is shown as below:
 400:../../../GD32F4xx_Firmware_Library/GD32F4xx_standard_peripheral/Source/gd32f4xx_timer.c ****       \arg        TIMER_UPDATE_SRC_GLOBAL: update generate by setting of UPG bit or the counter ove
 401:../../../GD32F4xx_Firmware_Library/GD32F4xx_standard_peripheral/Source/gd32f4xx_timer.c ****       \arg        TIMER_UPDATE_SRC_REGULAR: update generate only by counter overflow/underflow
 402:../../../GD32F4xx_Firmware_Library/GD32F4xx_standard_peripheral/Source/gd32f4xx_timer.c ****     \param[out] none
 403:../../../GD32F4xx_Firmware_Library/GD32F4xx_standard_peripheral/Source/gd32f4xx_timer.c ****     \retval     none
 404:../../../GD32F4xx_Firmware_Library/GD32F4xx_standard_peripheral/Source/gd32f4xx_timer.c **** */
 405:../../../GD32F4xx_Firmware_Library/GD32F4xx_standard_peripheral/Source/gd32f4xx_timer.c **** void timer_update_source_config(uint32_t timer_periph, uint32_t update)
 406:../../../GD32F4xx_Firmware_Library/GD32F4xx_standard_peripheral/Source/gd32f4xx_timer.c **** {
 902              		.loc 1 406 1 is_stmt 1 view -0
 903              		.cfi_startproc
 904              		@ args = 0, pretend = 0, frame = 0
 905              		@ frame_needed = 0, uses_anonymous_args = 0
 906              		@ link register save eliminated.
 407:../../../GD32F4xx_Firmware_Library/GD32F4xx_standard_peripheral/Source/gd32f4xx_timer.c ****     if(TIMER_UPDATE_SRC_REGULAR == update) {
 907              		.loc 1 407 5 view .LVU204
 908              		.loc 1 407 7 is_stmt 0 view .LVU205
 909 0000 21B9     		cbnz	r1, .L58
 408:../../../GD32F4xx_Firmware_Library/GD32F4xx_standard_peripheral/Source/gd32f4xx_timer.c ****         TIMER_CTL0(timer_periph) |= (uint32_t)TIMER_CTL0_UPS;
 910              		.loc 1 408 9 is_stmt 1 view .LVU206
 911 0002 0368     		ldr	r3, [r0]
 912              		.loc 1 408 34 is_stmt 0 view .LVU207
 913 0004 43F00403 		orr	r3, r3, #4
 914 0008 0360     		str	r3, [r0]
 915 000a 7047     		bx	lr
 916              	.L58:
 409:../../../GD32F4xx_Firmware_Library/GD32F4xx_standard_peripheral/Source/gd32f4xx_timer.c ****     } else if(TIMER_UPDATE_SRC_GLOBAL == update) {
 917              		.loc 1 409 12 is_stmt 1 view .LVU208
 918              		.loc 1 409 14 is_stmt 0 view .LVU209
 919 000c 0129     		cmp	r1, #1
 920 000e 00D0     		beq	.L60
 921              	.L57:
 410:../../../GD32F4xx_Firmware_Library/GD32F4xx_standard_peripheral/Source/gd32f4xx_timer.c ****         TIMER_CTL0(timer_periph) &= ~(uint32_t)TIMER_CTL0_UPS;
 411:../../../GD32F4xx_Firmware_Library/GD32F4xx_standard_peripheral/Source/gd32f4xx_timer.c ****     } else {
 412:../../../GD32F4xx_Firmware_Library/GD32F4xx_standard_peripheral/Source/gd32f4xx_timer.c ****         /* illegal parameters */
 413:../../../GD32F4xx_Firmware_Library/GD32F4xx_standard_peripheral/Source/gd32f4xx_timer.c ****     }
 414:../../../GD32F4xx_Firmware_Library/GD32F4xx_standard_peripheral/Source/gd32f4xx_timer.c **** }
 922              		.loc 1 414 1 view .LVU210
 923 0010 7047     		bx	lr
 924              	.L60:
 410:../../../GD32F4xx_Firmware_Library/GD32F4xx_standard_peripheral/Source/gd32f4xx_timer.c ****         TIMER_CTL0(timer_periph) &= ~(uint32_t)TIMER_CTL0_UPS;
 925              		.loc 1 410 9 is_stmt 1 view .LVU211
 926 0012 0368     		ldr	r3, [r0]
 410:../../../GD32F4xx_Firmware_Library/GD32F4xx_standard_peripheral/Source/gd32f4xx_timer.c ****         TIMER_CTL0(timer_periph) &= ~(uint32_t)TIMER_CTL0_UPS;
 927              		.loc 1 410 34 is_stmt 0 view .LVU212
 928 0014 23F00403 		bic	r3, r3, #4
 929 0018 0360     		str	r3, [r0]
 413:../../../GD32F4xx_Firmware_Library/GD32F4xx_standard_peripheral/Source/gd32f4xx_timer.c **** }
 930              		.loc 1 413 5 is_stmt 1 view .LVU213
ARM GAS  /var/folders/h5/b3x4g50d3yx3hd9mlg8mn_600000gn/T//cc8A1z0P.s 			page 25


 931              		.loc 1 414 1 is_stmt 0 view .LVU214
 932 001a F9E7     		b	.L57
 933              		.cfi_endproc
 934              	.LFE135:
 936              		.section	.text.timer_dma_enable,"ax",%progbits
 937              		.align	1
 938              		.global	timer_dma_enable
 939              		.syntax unified
 940              		.thumb
 941              		.thumb_func
 943              	timer_dma_enable:
 944              	.LVL77:
 945              	.LFB136:
 415:../../../GD32F4xx_Firmware_Library/GD32F4xx_standard_peripheral/Source/gd32f4xx_timer.c **** 
 416:../../../GD32F4xx_Firmware_Library/GD32F4xx_standard_peripheral/Source/gd32f4xx_timer.c **** /*!
 417:../../../GD32F4xx_Firmware_Library/GD32F4xx_standard_peripheral/Source/gd32f4xx_timer.c ****     \brief      enable the TIMER DMA
 418:../../../GD32F4xx_Firmware_Library/GD32F4xx_standard_peripheral/Source/gd32f4xx_timer.c ****     \param[in]  timer_periph: please refer to the following parameters
 419:../../../GD32F4xx_Firmware_Library/GD32F4xx_standard_peripheral/Source/gd32f4xx_timer.c ****     \param[in]  dma: specify which DMA to enable
 420:../../../GD32F4xx_Firmware_Library/GD32F4xx_standard_peripheral/Source/gd32f4xx_timer.c ****                 one or more parameters can be selected which is shown as below:
 421:../../../GD32F4xx_Firmware_Library/GD32F4xx_standard_peripheral/Source/gd32f4xx_timer.c ****       \arg        TIMER_DMA_UPD:  update DMA,TIMERx(x=0..7)
 422:../../../GD32F4xx_Firmware_Library/GD32F4xx_standard_peripheral/Source/gd32f4xx_timer.c ****       \arg        TIMER_DMA_CH0D: channel 0 DMA request,TIMERx(x=0..4,7)
 423:../../../GD32F4xx_Firmware_Library/GD32F4xx_standard_peripheral/Source/gd32f4xx_timer.c ****       \arg        TIMER_DMA_CH1D: channel 1 DMA request,TIMERx(x=0..4,7)
 424:../../../GD32F4xx_Firmware_Library/GD32F4xx_standard_peripheral/Source/gd32f4xx_timer.c ****       \arg        TIMER_DMA_CH2D: channel 2 DMA request,TIMERx(x=0..4,7)
 425:../../../GD32F4xx_Firmware_Library/GD32F4xx_standard_peripheral/Source/gd32f4xx_timer.c ****       \arg        TIMER_DMA_CH3D: channel 3 DMA request,TIMERx(x=0..4,7)
 426:../../../GD32F4xx_Firmware_Library/GD32F4xx_standard_peripheral/Source/gd32f4xx_timer.c ****       \arg        TIMER_DMA_CMTD: commutation DMA request,TIMERx(x=0,7)
 427:../../../GD32F4xx_Firmware_Library/GD32F4xx_standard_peripheral/Source/gd32f4xx_timer.c ****       \arg        TIMER_DMA_TRGD: trigger DMA request,TIMERx(x=0..4,7)
 428:../../../GD32F4xx_Firmware_Library/GD32F4xx_standard_peripheral/Source/gd32f4xx_timer.c ****     \param[out] none
 429:../../../GD32F4xx_Firmware_Library/GD32F4xx_standard_peripheral/Source/gd32f4xx_timer.c ****     \retval     none
 430:../../../GD32F4xx_Firmware_Library/GD32F4xx_standard_peripheral/Source/gd32f4xx_timer.c **** */
 431:../../../GD32F4xx_Firmware_Library/GD32F4xx_standard_peripheral/Source/gd32f4xx_timer.c **** void timer_dma_enable(uint32_t timer_periph, uint16_t dma)
 432:../../../GD32F4xx_Firmware_Library/GD32F4xx_standard_peripheral/Source/gd32f4xx_timer.c **** {
 946              		.loc 1 432 1 is_stmt 1 view -0
 947              		.cfi_startproc
 948              		@ args = 0, pretend = 0, frame = 0
 949              		@ frame_needed = 0, uses_anonymous_args = 0
 950              		@ link register save eliminated.
 433:../../../GD32F4xx_Firmware_Library/GD32F4xx_standard_peripheral/Source/gd32f4xx_timer.c ****     TIMER_DMAINTEN(timer_periph) |= (uint32_t) dma;
 951              		.loc 1 433 5 view .LVU216
 952 0000 C368     		ldr	r3, [r0, #12]
 953              		.loc 1 433 34 is_stmt 0 view .LVU217
 954 0002 0B43     		orrs	r3, r3, r1
 955 0004 C360     		str	r3, [r0, #12]
 434:../../../GD32F4xx_Firmware_Library/GD32F4xx_standard_peripheral/Source/gd32f4xx_timer.c **** }
 956              		.loc 1 434 1 view .LVU218
 957 0006 7047     		bx	lr
 958              		.cfi_endproc
 959              	.LFE136:
 961              		.section	.text.timer_dma_disable,"ax",%progbits
 962              		.align	1
 963              		.global	timer_dma_disable
 964              		.syntax unified
 965              		.thumb
 966              		.thumb_func
 968              	timer_dma_disable:
 969              	.LVL78:
 970              	.LFB137:
 435:../../../GD32F4xx_Firmware_Library/GD32F4xx_standard_peripheral/Source/gd32f4xx_timer.c **** 
ARM GAS  /var/folders/h5/b3x4g50d3yx3hd9mlg8mn_600000gn/T//cc8A1z0P.s 			page 26


 436:../../../GD32F4xx_Firmware_Library/GD32F4xx_standard_peripheral/Source/gd32f4xx_timer.c **** /*!
 437:../../../GD32F4xx_Firmware_Library/GD32F4xx_standard_peripheral/Source/gd32f4xx_timer.c ****     \brief      disable the TIMER DMA
 438:../../../GD32F4xx_Firmware_Library/GD32F4xx_standard_peripheral/Source/gd32f4xx_timer.c ****     \param[in]  timer_periph: please refer to the following parameters
 439:../../../GD32F4xx_Firmware_Library/GD32F4xx_standard_peripheral/Source/gd32f4xx_timer.c ****     \param[in]  dma: specify which DMA to disable
 440:../../../GD32F4xx_Firmware_Library/GD32F4xx_standard_peripheral/Source/gd32f4xx_timer.c ****                 one or more parameters can be selected which are shown as below:
 441:../../../GD32F4xx_Firmware_Library/GD32F4xx_standard_peripheral/Source/gd32f4xx_timer.c ****       \arg        TIMER_DMA_UPD:  update DMA,TIMERx(x=0..7)
 442:../../../GD32F4xx_Firmware_Library/GD32F4xx_standard_peripheral/Source/gd32f4xx_timer.c ****       \arg        TIMER_DMA_CH0D: channel 0 DMA request,TIMERx(x=0..4,7)
 443:../../../GD32F4xx_Firmware_Library/GD32F4xx_standard_peripheral/Source/gd32f4xx_timer.c ****       \arg        TIMER_DMA_CH1D: channel 1 DMA request,TIMERx(x=0..4,7)
 444:../../../GD32F4xx_Firmware_Library/GD32F4xx_standard_peripheral/Source/gd32f4xx_timer.c ****       \arg        TIMER_DMA_CH2D: channel 2 DMA request,TIMERx(x=0..4,7)
 445:../../../GD32F4xx_Firmware_Library/GD32F4xx_standard_peripheral/Source/gd32f4xx_timer.c ****       \arg        TIMER_DMA_CH3D: channel 3 DMA request,TIMERx(x=0..4,7)
 446:../../../GD32F4xx_Firmware_Library/GD32F4xx_standard_peripheral/Source/gd32f4xx_timer.c ****       \arg        TIMER_DMA_CMTD: commutation DMA request ,TIMERx(x=0,7)
 447:../../../GD32F4xx_Firmware_Library/GD32F4xx_standard_peripheral/Source/gd32f4xx_timer.c ****       \arg        TIMER_DMA_TRGD: trigger DMA request,TIMERx(x=0..4,7)
 448:../../../GD32F4xx_Firmware_Library/GD32F4xx_standard_peripheral/Source/gd32f4xx_timer.c ****     \param[out] none
 449:../../../GD32F4xx_Firmware_Library/GD32F4xx_standard_peripheral/Source/gd32f4xx_timer.c ****     \retval     none
 450:../../../GD32F4xx_Firmware_Library/GD32F4xx_standard_peripheral/Source/gd32f4xx_timer.c **** */
 451:../../../GD32F4xx_Firmware_Library/GD32F4xx_standard_peripheral/Source/gd32f4xx_timer.c **** void timer_dma_disable(uint32_t timer_periph, uint16_t dma)
 452:../../../GD32F4xx_Firmware_Library/GD32F4xx_standard_peripheral/Source/gd32f4xx_timer.c **** {
 971              		.loc 1 452 1 is_stmt 1 view -0
 972              		.cfi_startproc
 973              		@ args = 0, pretend = 0, frame = 0
 974              		@ frame_needed = 0, uses_anonymous_args = 0
 975              		@ link register save eliminated.
 453:../../../GD32F4xx_Firmware_Library/GD32F4xx_standard_peripheral/Source/gd32f4xx_timer.c ****     TIMER_DMAINTEN(timer_periph) &= (~(uint32_t)(dma));
 976              		.loc 1 453 5 view .LVU220
 977 0000 C368     		ldr	r3, [r0, #12]
 978              		.loc 1 453 34 is_stmt 0 view .LVU221
 979 0002 23EA0103 		bic	r3, r3, r1
 980 0006 C360     		str	r3, [r0, #12]
 454:../../../GD32F4xx_Firmware_Library/GD32F4xx_standard_peripheral/Source/gd32f4xx_timer.c **** }
 981              		.loc 1 454 1 view .LVU222
 982 0008 7047     		bx	lr
 983              		.cfi_endproc
 984              	.LFE137:
 986              		.section	.text.timer_channel_dma_request_source_select,"ax",%progbits
 987              		.align	1
 988              		.global	timer_channel_dma_request_source_select
 989              		.syntax unified
 990              		.thumb
 991              		.thumb_func
 993              	timer_channel_dma_request_source_select:
 994              	.LVL79:
 995              	.LFB138:
 455:../../../GD32F4xx_Firmware_Library/GD32F4xx_standard_peripheral/Source/gd32f4xx_timer.c **** 
 456:../../../GD32F4xx_Firmware_Library/GD32F4xx_standard_peripheral/Source/gd32f4xx_timer.c **** /*!
 457:../../../GD32F4xx_Firmware_Library/GD32F4xx_standard_peripheral/Source/gd32f4xx_timer.c ****     \brief      channel DMA request source selection
 458:../../../GD32F4xx_Firmware_Library/GD32F4xx_standard_peripheral/Source/gd32f4xx_timer.c ****     \param[in]  timer_periph: TIMERx(x=0..4,7)
 459:../../../GD32F4xx_Firmware_Library/GD32F4xx_standard_peripheral/Source/gd32f4xx_timer.c ****     \param[in]  dma_request: channel DMA request source selection
 460:../../../GD32F4xx_Firmware_Library/GD32F4xx_standard_peripheral/Source/gd32f4xx_timer.c ****                 only one parameter can be selected which is shown as below:
 461:../../../GD32F4xx_Firmware_Library/GD32F4xx_standard_peripheral/Source/gd32f4xx_timer.c ****        \arg        TIMER_DMAREQUEST_CHANNELEVENT: DMA request of channel y is sent when channel y e
 462:../../../GD32F4xx_Firmware_Library/GD32F4xx_standard_peripheral/Source/gd32f4xx_timer.c ****        \arg        TIMER_DMAREQUEST_UPDATEEVENT: DMA request of channel y is sent when update event
 463:../../../GD32F4xx_Firmware_Library/GD32F4xx_standard_peripheral/Source/gd32f4xx_timer.c ****     \param[out] none
 464:../../../GD32F4xx_Firmware_Library/GD32F4xx_standard_peripheral/Source/gd32f4xx_timer.c ****     \retval     none
 465:../../../GD32F4xx_Firmware_Library/GD32F4xx_standard_peripheral/Source/gd32f4xx_timer.c **** */
 466:../../../GD32F4xx_Firmware_Library/GD32F4xx_standard_peripheral/Source/gd32f4xx_timer.c **** void timer_channel_dma_request_source_select(uint32_t timer_periph, uint8_t dma_request)
 467:../../../GD32F4xx_Firmware_Library/GD32F4xx_standard_peripheral/Source/gd32f4xx_timer.c **** {
 996              		.loc 1 467 1 is_stmt 1 view -0
 997              		.cfi_startproc
ARM GAS  /var/folders/h5/b3x4g50d3yx3hd9mlg8mn_600000gn/T//cc8A1z0P.s 			page 27


 998              		@ args = 0, pretend = 0, frame = 0
 999              		@ frame_needed = 0, uses_anonymous_args = 0
 1000              		@ link register save eliminated.
 468:../../../GD32F4xx_Firmware_Library/GD32F4xx_standard_peripheral/Source/gd32f4xx_timer.c ****     if(TIMER_DMAREQUEST_UPDATEEVENT == dma_request) {
 1001              		.loc 1 468 5 view .LVU224
 1002              		.loc 1 468 7 is_stmt 0 view .LVU225
 1003 0000 21B9     		cbnz	r1, .L64
 469:../../../GD32F4xx_Firmware_Library/GD32F4xx_standard_peripheral/Source/gd32f4xx_timer.c ****         TIMER_CTL1(timer_periph) |= (uint32_t)TIMER_CTL1_DMAS;
 1004              		.loc 1 469 9 is_stmt 1 view .LVU226
 1005 0002 4368     		ldr	r3, [r0, #4]
 1006              		.loc 1 469 34 is_stmt 0 view .LVU227
 1007 0004 43F00803 		orr	r3, r3, #8
 1008 0008 4360     		str	r3, [r0, #4]
 1009 000a 7047     		bx	lr
 1010              	.L64:
 470:../../../GD32F4xx_Firmware_Library/GD32F4xx_standard_peripheral/Source/gd32f4xx_timer.c ****     } else if(TIMER_DMAREQUEST_CHANNELEVENT == dma_request) {
 1011              		.loc 1 470 12 is_stmt 1 view .LVU228
 1012              		.loc 1 470 14 is_stmt 0 view .LVU229
 1013 000c 0129     		cmp	r1, #1
 1014 000e 00D0     		beq	.L66
 1015              	.L63:
 471:../../../GD32F4xx_Firmware_Library/GD32F4xx_standard_peripheral/Source/gd32f4xx_timer.c ****         TIMER_CTL1(timer_periph) &= ~(uint32_t)TIMER_CTL1_DMAS;
 472:../../../GD32F4xx_Firmware_Library/GD32F4xx_standard_peripheral/Source/gd32f4xx_timer.c ****     } else {
 473:../../../GD32F4xx_Firmware_Library/GD32F4xx_standard_peripheral/Source/gd32f4xx_timer.c ****         /* illegal parameters */
 474:../../../GD32F4xx_Firmware_Library/GD32F4xx_standard_peripheral/Source/gd32f4xx_timer.c ****     }
 475:../../../GD32F4xx_Firmware_Library/GD32F4xx_standard_peripheral/Source/gd32f4xx_timer.c **** }
 1016              		.loc 1 475 1 view .LVU230
 1017 0010 7047     		bx	lr
 1018              	.L66:
 471:../../../GD32F4xx_Firmware_Library/GD32F4xx_standard_peripheral/Source/gd32f4xx_timer.c ****         TIMER_CTL1(timer_periph) &= ~(uint32_t)TIMER_CTL1_DMAS;
 1019              		.loc 1 471 9 is_stmt 1 view .LVU231
 1020 0012 4368     		ldr	r3, [r0, #4]
 471:../../../GD32F4xx_Firmware_Library/GD32F4xx_standard_peripheral/Source/gd32f4xx_timer.c ****         TIMER_CTL1(timer_periph) &= ~(uint32_t)TIMER_CTL1_DMAS;
 1021              		.loc 1 471 34 is_stmt 0 view .LVU232
 1022 0014 23F00803 		bic	r3, r3, #8
 1023 0018 4360     		str	r3, [r0, #4]
 474:../../../GD32F4xx_Firmware_Library/GD32F4xx_standard_peripheral/Source/gd32f4xx_timer.c **** }
 1024              		.loc 1 474 5 is_stmt 1 view .LVU233
 1025              		.loc 1 475 1 is_stmt 0 view .LVU234
 1026 001a F9E7     		b	.L63
 1027              		.cfi_endproc
 1028              	.LFE138:
 1030              		.section	.text.timer_dma_transfer_config,"ax",%progbits
 1031              		.align	1
 1032              		.global	timer_dma_transfer_config
 1033              		.syntax unified
 1034              		.thumb
 1035              		.thumb_func
 1037              	timer_dma_transfer_config:
 1038              	.LVL80:
 1039              	.LFB139:
 476:../../../GD32F4xx_Firmware_Library/GD32F4xx_standard_peripheral/Source/gd32f4xx_timer.c **** 
 477:../../../GD32F4xx_Firmware_Library/GD32F4xx_standard_peripheral/Source/gd32f4xx_timer.c **** /*!
 478:../../../GD32F4xx_Firmware_Library/GD32F4xx_standard_peripheral/Source/gd32f4xx_timer.c ****     \brief      configure the TIMER DMA transfer
 479:../../../GD32F4xx_Firmware_Library/GD32F4xx_standard_peripheral/Source/gd32f4xx_timer.c ****     \param[in]  timer_periph: please refer to the following parameters
 480:../../../GD32F4xx_Firmware_Library/GD32F4xx_standard_peripheral/Source/gd32f4xx_timer.c ****     \param[in]  dma_baseaddr:
 481:../../../GD32F4xx_Firmware_Library/GD32F4xx_standard_peripheral/Source/gd32f4xx_timer.c ****                 only one parameter can be selected which is shown as below:
ARM GAS  /var/folders/h5/b3x4g50d3yx3hd9mlg8mn_600000gn/T//cc8A1z0P.s 			page 28


 482:../../../GD32F4xx_Firmware_Library/GD32F4xx_standard_peripheral/Source/gd32f4xx_timer.c ****        \arg        TIMER_DMACFG_DMATA_CTL0: DMA transfer address is TIMER_CTL0,TIMERx(x=0..4,7)
 483:../../../GD32F4xx_Firmware_Library/GD32F4xx_standard_peripheral/Source/gd32f4xx_timer.c ****        \arg        TIMER_DMACFG_DMATA_CTL1: DMA transfer address is TIMER_CTL1,TIMERx(x=0..4,7)
 484:../../../GD32F4xx_Firmware_Library/GD32F4xx_standard_peripheral/Source/gd32f4xx_timer.c ****        \arg        TIMER_DMACFG_DMATA_SMCFG: DMA transfer address is TIMER_SMCFG,TIMERx(x=0..4,7)
 485:../../../GD32F4xx_Firmware_Library/GD32F4xx_standard_peripheral/Source/gd32f4xx_timer.c ****        \arg        TIMER_DMACFG_DMATA_DMAINTEN: DMA transfer address is TIMER_DMAINTEN,TIMERx(x=0..
 486:../../../GD32F4xx_Firmware_Library/GD32F4xx_standard_peripheral/Source/gd32f4xx_timer.c ****        \arg        TIMER_DMACFG_DMATA_INTF: DMA transfer address is TIMER_INTF,TIMERx(x=0..4,7)
 487:../../../GD32F4xx_Firmware_Library/GD32F4xx_standard_peripheral/Source/gd32f4xx_timer.c ****        \arg        TIMER_DMACFG_DMATA_SWEVG: DMA transfer address is TIMER_SWEVG,TIMERx(x=0..4,7)
 488:../../../GD32F4xx_Firmware_Library/GD32F4xx_standard_peripheral/Source/gd32f4xx_timer.c ****        \arg        TIMER_DMACFG_DMATA_CHCTL0: DMA transfer address is TIMER_CHCTL0,TIMERx(x=0..4,7)
 489:../../../GD32F4xx_Firmware_Library/GD32F4xx_standard_peripheral/Source/gd32f4xx_timer.c ****        \arg        TIMER_DMACFG_DMATA_CHCTL1: DMA transfer address is TIMER_CHCTL1,TIMERx(x=0..4,7)
 490:../../../GD32F4xx_Firmware_Library/GD32F4xx_standard_peripheral/Source/gd32f4xx_timer.c ****        \arg        TIMER_DMACFG_DMATA_CHCTL2: DMA transfer address is TIMER_CHCTL2,TIMERx(x=0..4,7)
 491:../../../GD32F4xx_Firmware_Library/GD32F4xx_standard_peripheral/Source/gd32f4xx_timer.c ****        \arg        TIMER_DMACFG_DMATA_CNT: DMA transfer address is TIMER_CNT,TIMERx(x=0..4,7)
 492:../../../GD32F4xx_Firmware_Library/GD32F4xx_standard_peripheral/Source/gd32f4xx_timer.c ****        \arg        TIMER_DMACFG_DMATA_PSC: DMA transfer address is TIMER_PSC,TIMERx(x=0..4,7)
 493:../../../GD32F4xx_Firmware_Library/GD32F4xx_standard_peripheral/Source/gd32f4xx_timer.c ****        \arg        TIMER_DMACFG_DMATA_CAR: DMA transfer address is TIMER_CAR,TIMERx(x=0..4,7)
 494:../../../GD32F4xx_Firmware_Library/GD32F4xx_standard_peripheral/Source/gd32f4xx_timer.c ****        \arg        TIMER_DMACFG_DMATA_CREP: DMA transfer address is TIMER_CREP,TIMERx(x=0,7)
 495:../../../GD32F4xx_Firmware_Library/GD32F4xx_standard_peripheral/Source/gd32f4xx_timer.c ****        \arg        TIMER_DMACFG_DMATA_CH0CV: DMA transfer address is TIMER_CH0CV,TIMERx(x=0..4,7)
 496:../../../GD32F4xx_Firmware_Library/GD32F4xx_standard_peripheral/Source/gd32f4xx_timer.c ****        \arg        TIMER_DMACFG_DMATA_CH1CV: DMA transfer address is TIMER_CH1CV,TIMERx(x=0..4,7)
 497:../../../GD32F4xx_Firmware_Library/GD32F4xx_standard_peripheral/Source/gd32f4xx_timer.c ****        \arg        TIMER_DMACFG_DMATA_CH2CV: DMA transfer address is TIMER_CH2CV,TIMERx(x=0..4,7)
 498:../../../GD32F4xx_Firmware_Library/GD32F4xx_standard_peripheral/Source/gd32f4xx_timer.c ****        \arg        TIMER_DMACFG_DMATA_CH3CV: DMA transfer address is TIMER_CH3CV,TIMERx(x=0..4,7)
 499:../../../GD32F4xx_Firmware_Library/GD32F4xx_standard_peripheral/Source/gd32f4xx_timer.c ****        \arg        TIMER_DMACFG_DMATA_CCHP: DMA transfer address is TIMER_CCHP,TIMERx(x=0..4,7)
 500:../../../GD32F4xx_Firmware_Library/GD32F4xx_standard_peripheral/Source/gd32f4xx_timer.c ****        \arg        TIMER_DMACFG_DMATA_DMACFG: DMA transfer address is TIMER_DMACFG,TIMERx(x=0..4,7)
 501:../../../GD32F4xx_Firmware_Library/GD32F4xx_standard_peripheral/Source/gd32f4xx_timer.c ****        \arg        TIMER_DMACFG_DMATA_DMATB: DMA transfer address is TIMER_DMATB,TIMERx(x=0..4,7)
 502:../../../GD32F4xx_Firmware_Library/GD32F4xx_standard_peripheral/Source/gd32f4xx_timer.c ****     \param[in]  dma_lenth:
 503:../../../GD32F4xx_Firmware_Library/GD32F4xx_standard_peripheral/Source/gd32f4xx_timer.c ****                 only one parameter can be selected which is shown as below:
 504:../../../GD32F4xx_Firmware_Library/GD32F4xx_standard_peripheral/Source/gd32f4xx_timer.c ****        \arg        TIMER_DMACFG_DMATC_xTRANSFER(x=1..18): DMA transfer x time
 505:../../../GD32F4xx_Firmware_Library/GD32F4xx_standard_peripheral/Source/gd32f4xx_timer.c ****     \param[out] none
 506:../../../GD32F4xx_Firmware_Library/GD32F4xx_standard_peripheral/Source/gd32f4xx_timer.c ****     \retval     none
 507:../../../GD32F4xx_Firmware_Library/GD32F4xx_standard_peripheral/Source/gd32f4xx_timer.c **** */
 508:../../../GD32F4xx_Firmware_Library/GD32F4xx_standard_peripheral/Source/gd32f4xx_timer.c **** void timer_dma_transfer_config(uint32_t timer_periph, uint32_t dma_baseaddr, uint32_t dma_lenth)
 509:../../../GD32F4xx_Firmware_Library/GD32F4xx_standard_peripheral/Source/gd32f4xx_timer.c **** {
 1040              		.loc 1 509 1 is_stmt 1 view -0
 1041              		.cfi_startproc
 1042              		@ args = 0, pretend = 0, frame = 0
 1043              		@ frame_needed = 0, uses_anonymous_args = 0
 1044              		@ link register save eliminated.
 510:../../../GD32F4xx_Firmware_Library/GD32F4xx_standard_peripheral/Source/gd32f4xx_timer.c ****     TIMER_DMACFG(timer_periph) &= (~(uint32_t)(TIMER_DMACFG_DMATA | TIMER_DMACFG_DMATC));
 1045              		.loc 1 510 5 view .LVU236
 1046 0000 836C     		ldr	r3, [r0, #72]
 1047              		.loc 1 510 32 is_stmt 0 view .LVU237
 1048 0002 23F4F853 		bic	r3, r3, #7936
 1049 0006 23F01F03 		bic	r3, r3, #31
 1050 000a 8364     		str	r3, [r0, #72]
 511:../../../GD32F4xx_Firmware_Library/GD32F4xx_standard_peripheral/Source/gd32f4xx_timer.c ****     TIMER_DMACFG(timer_periph) |= (uint32_t)(dma_baseaddr | dma_lenth);
 1051              		.loc 1 511 5 is_stmt 1 view .LVU238
 1052 000c 836C     		ldr	r3, [r0, #72]
 1053              		.loc 1 511 59 is_stmt 0 view .LVU239
 1054 000e 1143     		orrs	r1, r1, r2
 1055              	.LVL81:
 1056              		.loc 1 511 32 view .LVU240
 1057 0010 0B43     		orrs	r3, r3, r1
 1058 0012 8364     		str	r3, [r0, #72]
 512:../../../GD32F4xx_Firmware_Library/GD32F4xx_standard_peripheral/Source/gd32f4xx_timer.c **** }
 1059              		.loc 1 512 1 view .LVU241
 1060 0014 7047     		bx	lr
 1061              		.cfi_endproc
 1062              	.LFE139:
 1064              		.section	.text.timer_event_software_generate,"ax",%progbits
 1065              		.align	1
 1066              		.global	timer_event_software_generate
ARM GAS  /var/folders/h5/b3x4g50d3yx3hd9mlg8mn_600000gn/T//cc8A1z0P.s 			page 29


 1067              		.syntax unified
 1068              		.thumb
 1069              		.thumb_func
 1071              	timer_event_software_generate:
 1072              	.LVL82:
 1073              	.LFB140:
 513:../../../GD32F4xx_Firmware_Library/GD32F4xx_standard_peripheral/Source/gd32f4xx_timer.c **** 
 514:../../../GD32F4xx_Firmware_Library/GD32F4xx_standard_peripheral/Source/gd32f4xx_timer.c **** /*!
 515:../../../GD32F4xx_Firmware_Library/GD32F4xx_standard_peripheral/Source/gd32f4xx_timer.c ****     \brief      software generate events
 516:../../../GD32F4xx_Firmware_Library/GD32F4xx_standard_peripheral/Source/gd32f4xx_timer.c ****     \param[in]  timer_periph: please refer to the following parameters
 517:../../../GD32F4xx_Firmware_Library/GD32F4xx_standard_peripheral/Source/gd32f4xx_timer.c ****     \param[in]  event: the timer software event generation sources
 518:../../../GD32F4xx_Firmware_Library/GD32F4xx_standard_peripheral/Source/gd32f4xx_timer.c ****                 one or more parameters can be selected which are shown as below:
 519:../../../GD32F4xx_Firmware_Library/GD32F4xx_standard_peripheral/Source/gd32f4xx_timer.c ****       \arg        TIMER_EVENT_SRC_UPG: update event,TIMERx(x=0..13)
 520:../../../GD32F4xx_Firmware_Library/GD32F4xx_standard_peripheral/Source/gd32f4xx_timer.c ****       \arg        TIMER_EVENT_SRC_CH0G: channel 0 capture or compare event generation,TIMERx(x=0..4
 521:../../../GD32F4xx_Firmware_Library/GD32F4xx_standard_peripheral/Source/gd32f4xx_timer.c ****       \arg        TIMER_EVENT_SRC_CH1G: channel 1 capture or compare event generation,TIMERx(x=0..4
 522:../../../GD32F4xx_Firmware_Library/GD32F4xx_standard_peripheral/Source/gd32f4xx_timer.c ****       \arg        TIMER_EVENT_SRC_CH2G: channel 2 capture or compare event generation,TIMERx(x=0..4
 523:../../../GD32F4xx_Firmware_Library/GD32F4xx_standard_peripheral/Source/gd32f4xx_timer.c ****       \arg        TIMER_EVENT_SRC_CH3G: channel 3 capture or compare event generation,TIMERx(x=0..4
 524:../../../GD32F4xx_Firmware_Library/GD32F4xx_standard_peripheral/Source/gd32f4xx_timer.c ****       \arg        TIMER_EVENT_SRC_CMTG: channel commutation event generation,TIMERx(x=0,7)
 525:../../../GD32F4xx_Firmware_Library/GD32F4xx_standard_peripheral/Source/gd32f4xx_timer.c ****       \arg        TIMER_EVENT_SRC_TRGG: trigger event generation,TIMERx(x=0..4,7,8,11)
 526:../../../GD32F4xx_Firmware_Library/GD32F4xx_standard_peripheral/Source/gd32f4xx_timer.c ****       \arg        TIMER_EVENT_SRC_BRKG:  break event generation,TIMERx(x=0,7)
 527:../../../GD32F4xx_Firmware_Library/GD32F4xx_standard_peripheral/Source/gd32f4xx_timer.c ****     \param[out] none
 528:../../../GD32F4xx_Firmware_Library/GD32F4xx_standard_peripheral/Source/gd32f4xx_timer.c ****     \retval     none
 529:../../../GD32F4xx_Firmware_Library/GD32F4xx_standard_peripheral/Source/gd32f4xx_timer.c **** */
 530:../../../GD32F4xx_Firmware_Library/GD32F4xx_standard_peripheral/Source/gd32f4xx_timer.c **** void timer_event_software_generate(uint32_t timer_periph, uint16_t event)
 531:../../../GD32F4xx_Firmware_Library/GD32F4xx_standard_peripheral/Source/gd32f4xx_timer.c **** {
 1074              		.loc 1 531 1 is_stmt 1 view -0
 1075              		.cfi_startproc
 1076              		@ args = 0, pretend = 0, frame = 0
 1077              		@ frame_needed = 0, uses_anonymous_args = 0
 1078              		@ link register save eliminated.
 532:../../../GD32F4xx_Firmware_Library/GD32F4xx_standard_peripheral/Source/gd32f4xx_timer.c ****     TIMER_SWEVG(timer_periph) |= (uint32_t)event;
 1079              		.loc 1 532 5 view .LVU243
 1080 0000 4369     		ldr	r3, [r0, #20]
 1081              		.loc 1 532 31 is_stmt 0 view .LVU244
 1082 0002 0B43     		orrs	r3, r3, r1
 1083 0004 4361     		str	r3, [r0, #20]
 533:../../../GD32F4xx_Firmware_Library/GD32F4xx_standard_peripheral/Source/gd32f4xx_timer.c **** }
 1084              		.loc 1 533 1 view .LVU245
 1085 0006 7047     		bx	lr
 1086              		.cfi_endproc
 1087              	.LFE140:
 1089              		.section	.text.timer_break_struct_para_init,"ax",%progbits
 1090              		.align	1
 1091              		.global	timer_break_struct_para_init
 1092              		.syntax unified
 1093              		.thumb
 1094              		.thumb_func
 1096              	timer_break_struct_para_init:
 1097              	.LVL83:
 1098              	.LFB141:
 534:../../../GD32F4xx_Firmware_Library/GD32F4xx_standard_peripheral/Source/gd32f4xx_timer.c **** 
 535:../../../GD32F4xx_Firmware_Library/GD32F4xx_standard_peripheral/Source/gd32f4xx_timer.c **** /*!
 536:../../../GD32F4xx_Firmware_Library/GD32F4xx_standard_peripheral/Source/gd32f4xx_timer.c ****     \brief      initialize TIMER break parameter struct
 537:../../../GD32F4xx_Firmware_Library/GD32F4xx_standard_peripheral/Source/gd32f4xx_timer.c ****     \param[in]  breakpara: TIMER break parameter struct
 538:../../../GD32F4xx_Firmware_Library/GD32F4xx_standard_peripheral/Source/gd32f4xx_timer.c ****     \param[out] none
 539:../../../GD32F4xx_Firmware_Library/GD32F4xx_standard_peripheral/Source/gd32f4xx_timer.c ****     \retval     none
 540:../../../GD32F4xx_Firmware_Library/GD32F4xx_standard_peripheral/Source/gd32f4xx_timer.c **** */
ARM GAS  /var/folders/h5/b3x4g50d3yx3hd9mlg8mn_600000gn/T//cc8A1z0P.s 			page 30


 541:../../../GD32F4xx_Firmware_Library/GD32F4xx_standard_peripheral/Source/gd32f4xx_timer.c **** void timer_break_struct_para_init(timer_break_parameter_struct *breakpara)
 542:../../../GD32F4xx_Firmware_Library/GD32F4xx_standard_peripheral/Source/gd32f4xx_timer.c **** {
 1099              		.loc 1 542 1 is_stmt 1 view -0
 1100              		.cfi_startproc
 1101              		@ args = 0, pretend = 0, frame = 0
 1102              		@ frame_needed = 0, uses_anonymous_args = 0
 1103              		@ link register save eliminated.
 543:../../../GD32F4xx_Firmware_Library/GD32F4xx_standard_peripheral/Source/gd32f4xx_timer.c ****     /* initialize the break parameter struct member with the default value */
 544:../../../GD32F4xx_Firmware_Library/GD32F4xx_standard_peripheral/Source/gd32f4xx_timer.c ****     breakpara->runoffstate     = TIMER_ROS_STATE_DISABLE;
 1104              		.loc 1 544 5 view .LVU247
 1105              		.loc 1 544 32 is_stmt 0 view .LVU248
 1106 0000 0023     		movs	r3, #0
 1107 0002 0380     		strh	r3, [r0]	@ movhi
 545:../../../GD32F4xx_Firmware_Library/GD32F4xx_standard_peripheral/Source/gd32f4xx_timer.c ****     breakpara->ideloffstate    = TIMER_IOS_STATE_DISABLE;
 1108              		.loc 1 545 5 is_stmt 1 view .LVU249
 1109              		.loc 1 545 32 is_stmt 0 view .LVU250
 1110 0004 4380     		strh	r3, [r0, #2]	@ movhi
 546:../../../GD32F4xx_Firmware_Library/GD32F4xx_standard_peripheral/Source/gd32f4xx_timer.c ****     breakpara->deadtime        = 0U;
 1111              		.loc 1 546 5 is_stmt 1 view .LVU251
 1112              		.loc 1 546 32 is_stmt 0 view .LVU252
 1113 0006 8380     		strh	r3, [r0, #4]	@ movhi
 547:../../../GD32F4xx_Firmware_Library/GD32F4xx_standard_peripheral/Source/gd32f4xx_timer.c ****     breakpara->breakpolarity   = TIMER_BREAK_POLARITY_LOW;
 1114              		.loc 1 547 5 is_stmt 1 view .LVU253
 1115              		.loc 1 547 32 is_stmt 0 view .LVU254
 1116 0008 C380     		strh	r3, [r0, #6]	@ movhi
 548:../../../GD32F4xx_Firmware_Library/GD32F4xx_standard_peripheral/Source/gd32f4xx_timer.c ****     breakpara->outputautostate = TIMER_OUTAUTO_DISABLE;
 1117              		.loc 1 548 5 is_stmt 1 view .LVU255
 1118              		.loc 1 548 32 is_stmt 0 view .LVU256
 1119 000a 0381     		strh	r3, [r0, #8]	@ movhi
 549:../../../GD32F4xx_Firmware_Library/GD32F4xx_standard_peripheral/Source/gd32f4xx_timer.c ****     breakpara->protectmode     = TIMER_CCHP_PROT_OFF;
 1120              		.loc 1 549 5 is_stmt 1 view .LVU257
 1121              		.loc 1 549 32 is_stmt 0 view .LVU258
 1122 000c 4381     		strh	r3, [r0, #10]	@ movhi
 550:../../../GD32F4xx_Firmware_Library/GD32F4xx_standard_peripheral/Source/gd32f4xx_timer.c ****     breakpara->breakstate      = TIMER_BREAK_DISABLE;
 1123              		.loc 1 550 5 is_stmt 1 view .LVU259
 1124              		.loc 1 550 32 is_stmt 0 view .LVU260
 1125 000e 8381     		strh	r3, [r0, #12]	@ movhi
 551:../../../GD32F4xx_Firmware_Library/GD32F4xx_standard_peripheral/Source/gd32f4xx_timer.c **** }
 1126              		.loc 1 551 1 view .LVU261
 1127 0010 7047     		bx	lr
 1128              		.cfi_endproc
 1129              	.LFE141:
 1131              		.section	.text.timer_break_config,"ax",%progbits
 1132              		.align	1
 1133              		.global	timer_break_config
 1134              		.syntax unified
 1135              		.thumb
 1136              		.thumb_func
 1138              	timer_break_config:
 1139              	.LVL84:
 1140              	.LFB142:
 552:../../../GD32F4xx_Firmware_Library/GD32F4xx_standard_peripheral/Source/gd32f4xx_timer.c **** 
 553:../../../GD32F4xx_Firmware_Library/GD32F4xx_standard_peripheral/Source/gd32f4xx_timer.c **** /*!
 554:../../../GD32F4xx_Firmware_Library/GD32F4xx_standard_peripheral/Source/gd32f4xx_timer.c ****     \brief      configure TIMER break function
 555:../../../GD32F4xx_Firmware_Library/GD32F4xx_standard_peripheral/Source/gd32f4xx_timer.c ****     \param[in]  timer_periph: TIMERx(x=0,7)
 556:../../../GD32F4xx_Firmware_Library/GD32F4xx_standard_peripheral/Source/gd32f4xx_timer.c ****     \param[in]  breakpara: TIMER break parameter struct
 557:../../../GD32F4xx_Firmware_Library/GD32F4xx_standard_peripheral/Source/gd32f4xx_timer.c ****                 runoffstate: TIMER_ROS_STATE_ENABLE,TIMER_ROS_STATE_DISABLE
ARM GAS  /var/folders/h5/b3x4g50d3yx3hd9mlg8mn_600000gn/T//cc8A1z0P.s 			page 31


 558:../../../GD32F4xx_Firmware_Library/GD32F4xx_standard_peripheral/Source/gd32f4xx_timer.c ****                 ideloffstate: TIMER_IOS_STATE_ENABLE,TIMER_IOS_STATE_DISABLE
 559:../../../GD32F4xx_Firmware_Library/GD32F4xx_standard_peripheral/Source/gd32f4xx_timer.c ****                 deadtime: 0~255
 560:../../../GD32F4xx_Firmware_Library/GD32F4xx_standard_peripheral/Source/gd32f4xx_timer.c ****                 breakpolarity: TIMER_BREAK_POLARITY_LOW,TIMER_BREAK_POLARITY_HIGH
 561:../../../GD32F4xx_Firmware_Library/GD32F4xx_standard_peripheral/Source/gd32f4xx_timer.c ****                 outputautostate: TIMER_OUTAUTO_ENABLE,TIMER_OUTAUTO_DISABLE
 562:../../../GD32F4xx_Firmware_Library/GD32F4xx_standard_peripheral/Source/gd32f4xx_timer.c ****                 protectmode: TIMER_CCHP_PROT_OFF,TIMER_CCHP_PROT_0,TIMER_CCHP_PROT_1,TIMER_CCHP_PRO
 563:../../../GD32F4xx_Firmware_Library/GD32F4xx_standard_peripheral/Source/gd32f4xx_timer.c ****                 breakstate: TIMER_BREAK_ENABLE,TIMER_BREAK_DISABLE
 564:../../../GD32F4xx_Firmware_Library/GD32F4xx_standard_peripheral/Source/gd32f4xx_timer.c ****     \param[out] none
 565:../../../GD32F4xx_Firmware_Library/GD32F4xx_standard_peripheral/Source/gd32f4xx_timer.c ****     \retval     none
 566:../../../GD32F4xx_Firmware_Library/GD32F4xx_standard_peripheral/Source/gd32f4xx_timer.c **** */
 567:../../../GD32F4xx_Firmware_Library/GD32F4xx_standard_peripheral/Source/gd32f4xx_timer.c **** void timer_break_config(uint32_t timer_periph, timer_break_parameter_struct *breakpara)
 568:../../../GD32F4xx_Firmware_Library/GD32F4xx_standard_peripheral/Source/gd32f4xx_timer.c **** {
 1141              		.loc 1 568 1 is_stmt 1 view -0
 1142              		.cfi_startproc
 1143              		@ args = 0, pretend = 0, frame = 0
 1144              		@ frame_needed = 0, uses_anonymous_args = 0
 1145              		.loc 1 568 1 is_stmt 0 view .LVU263
 1146 0000 70B5     		push	{r4, r5, r6, lr}
 1147              	.LCFI1:
 1148              		.cfi_def_cfa_offset 16
 1149              		.cfi_offset 4, -16
 1150              		.cfi_offset 5, -12
 1151              		.cfi_offset 6, -8
 1152              		.cfi_offset 14, -4
 569:../../../GD32F4xx_Firmware_Library/GD32F4xx_standard_peripheral/Source/gd32f4xx_timer.c ****     TIMER_CCHP(timer_periph) = (uint32_t)(((uint32_t)(breakpara->runoffstate)) |
 1153              		.loc 1 569 5 is_stmt 1 view .LVU264
 1154              		.loc 1 569 64 is_stmt 0 view .LVU265
 1155 0002 0D88     		ldrh	r5, [r1]
 570:../../../GD32F4xx_Firmware_Library/GD32F4xx_standard_peripheral/Source/gd32f4xx_timer.c ****                                           ((uint32_t)(breakpara->ideloffstate)) |
 1156              		.loc 1 570 64 view .LVU266
 1157 0004 4E88     		ldrh	r6, [r1, #2]
 571:../../../GD32F4xx_Firmware_Library/GD32F4xx_standard_peripheral/Source/gd32f4xx_timer.c ****                                           ((uint32_t)(breakpara->deadtime)) |
 1158              		.loc 1 571 64 view .LVU267
 1159 0006 8C88     		ldrh	r4, [r1, #4]
 572:../../../GD32F4xx_Firmware_Library/GD32F4xx_standard_peripheral/Source/gd32f4xx_timer.c ****                                           ((uint32_t)(breakpara->breakpolarity)) |
 1160              		.loc 1 572 64 view .LVU268
 1161 0008 B1F806E0 		ldrh	lr, [r1, #6]
 573:../../../GD32F4xx_Firmware_Library/GD32F4xx_standard_peripheral/Source/gd32f4xx_timer.c ****                                           ((uint32_t)(breakpara->outputautostate)) |
 1162              		.loc 1 573 64 view .LVU269
 1163 000c B1F808C0 		ldrh	ip, [r1, #8]
 574:../../../GD32F4xx_Firmware_Library/GD32F4xx_standard_peripheral/Source/gd32f4xx_timer.c ****                                           ((uint32_t)(breakpara->protectmode)) |
 1164              		.loc 1 574 64 view .LVU270
 1165 0010 4A89     		ldrh	r2, [r1, #10]
 575:../../../GD32F4xx_Firmware_Library/GD32F4xx_standard_peripheral/Source/gd32f4xx_timer.c ****                                           ((uint32_t)(breakpara->breakstate))) ;
 1166              		.loc 1 575 64 view .LVU271
 1167 0012 8B89     		ldrh	r3, [r1, #12]
 569:../../../GD32F4xx_Firmware_Library/GD32F4xx_standard_peripheral/Source/gd32f4xx_timer.c ****                                           ((uint32_t)(breakpara->ideloffstate)) |
 1168              		.loc 1 569 32 view .LVU272
 1169 0014 45EA0601 		orr	r1, r5, r6
 1170              	.LVL85:
 569:../../../GD32F4xx_Firmware_Library/GD32F4xx_standard_peripheral/Source/gd32f4xx_timer.c ****                                           ((uint32_t)(breakpara->ideloffstate)) |
 1171              		.loc 1 569 32 view .LVU273
 1172 0018 2143     		orrs	r1, r1, r4
 1173 001a 4EEA0101 		orr	r1, lr, r1
 1174 001e 4CEA0101 		orr	r1, ip, r1
 1175 0022 0A43     		orrs	r2, r2, r1
 1176 0024 1343     		orrs	r3, r3, r2
 569:../../../GD32F4xx_Firmware_Library/GD32F4xx_standard_peripheral/Source/gd32f4xx_timer.c ****                                           ((uint32_t)(breakpara->ideloffstate)) |
ARM GAS  /var/folders/h5/b3x4g50d3yx3hd9mlg8mn_600000gn/T//cc8A1z0P.s 			page 32


 1177              		.loc 1 569 30 view .LVU274
 1178 0026 4364     		str	r3, [r0, #68]
 576:../../../GD32F4xx_Firmware_Library/GD32F4xx_standard_peripheral/Source/gd32f4xx_timer.c **** }
 1179              		.loc 1 576 1 view .LVU275
 1180 0028 70BD     		pop	{r4, r5, r6, pc}
 1181              		.cfi_endproc
 1182              	.LFE142:
 1184              		.section	.text.timer_break_enable,"ax",%progbits
 1185              		.align	1
 1186              		.global	timer_break_enable
 1187              		.syntax unified
 1188              		.thumb
 1189              		.thumb_func
 1191              	timer_break_enable:
 1192              	.LVL86:
 1193              	.LFB143:
 577:../../../GD32F4xx_Firmware_Library/GD32F4xx_standard_peripheral/Source/gd32f4xx_timer.c **** 
 578:../../../GD32F4xx_Firmware_Library/GD32F4xx_standard_peripheral/Source/gd32f4xx_timer.c **** /*!
 579:../../../GD32F4xx_Firmware_Library/GD32F4xx_standard_peripheral/Source/gd32f4xx_timer.c ****     \brief      enable TIMER break function
 580:../../../GD32F4xx_Firmware_Library/GD32F4xx_standard_peripheral/Source/gd32f4xx_timer.c ****     \param[in]  timer_periph: TIMERx(x=0,7)
 581:../../../GD32F4xx_Firmware_Library/GD32F4xx_standard_peripheral/Source/gd32f4xx_timer.c ****     \param[out] none
 582:../../../GD32F4xx_Firmware_Library/GD32F4xx_standard_peripheral/Source/gd32f4xx_timer.c ****     \retval     none
 583:../../../GD32F4xx_Firmware_Library/GD32F4xx_standard_peripheral/Source/gd32f4xx_timer.c **** */
 584:../../../GD32F4xx_Firmware_Library/GD32F4xx_standard_peripheral/Source/gd32f4xx_timer.c **** void timer_break_enable(uint32_t timer_periph)
 585:../../../GD32F4xx_Firmware_Library/GD32F4xx_standard_peripheral/Source/gd32f4xx_timer.c **** {
 1194              		.loc 1 585 1 is_stmt 1 view -0
 1195              		.cfi_startproc
 1196              		@ args = 0, pretend = 0, frame = 0
 1197              		@ frame_needed = 0, uses_anonymous_args = 0
 1198              		@ link register save eliminated.
 586:../../../GD32F4xx_Firmware_Library/GD32F4xx_standard_peripheral/Source/gd32f4xx_timer.c ****     TIMER_CCHP(timer_periph) |= (uint32_t)TIMER_CCHP_BRKEN;
 1199              		.loc 1 586 5 view .LVU277
 1200 0000 436C     		ldr	r3, [r0, #68]
 1201              		.loc 1 586 30 is_stmt 0 view .LVU278
 1202 0002 43F48053 		orr	r3, r3, #4096
 1203 0006 4364     		str	r3, [r0, #68]
 587:../../../GD32F4xx_Firmware_Library/GD32F4xx_standard_peripheral/Source/gd32f4xx_timer.c **** }
 1204              		.loc 1 587 1 view .LVU279
 1205 0008 7047     		bx	lr
 1206              		.cfi_endproc
 1207              	.LFE143:
 1209              		.section	.text.timer_break_disable,"ax",%progbits
 1210              		.align	1
 1211              		.global	timer_break_disable
 1212              		.syntax unified
 1213              		.thumb
 1214              		.thumb_func
 1216              	timer_break_disable:
 1217              	.LVL87:
 1218              	.LFB144:
 588:../../../GD32F4xx_Firmware_Library/GD32F4xx_standard_peripheral/Source/gd32f4xx_timer.c **** 
 589:../../../GD32F4xx_Firmware_Library/GD32F4xx_standard_peripheral/Source/gd32f4xx_timer.c **** /*!
 590:../../../GD32F4xx_Firmware_Library/GD32F4xx_standard_peripheral/Source/gd32f4xx_timer.c ****     \brief      disable TIMER break function
 591:../../../GD32F4xx_Firmware_Library/GD32F4xx_standard_peripheral/Source/gd32f4xx_timer.c ****     \param[in]  timer_periph: TIMERx(x=0,7)
 592:../../../GD32F4xx_Firmware_Library/GD32F4xx_standard_peripheral/Source/gd32f4xx_timer.c ****     \param[out] none
 593:../../../GD32F4xx_Firmware_Library/GD32F4xx_standard_peripheral/Source/gd32f4xx_timer.c ****     \retval     none
 594:../../../GD32F4xx_Firmware_Library/GD32F4xx_standard_peripheral/Source/gd32f4xx_timer.c **** */
ARM GAS  /var/folders/h5/b3x4g50d3yx3hd9mlg8mn_600000gn/T//cc8A1z0P.s 			page 33


 595:../../../GD32F4xx_Firmware_Library/GD32F4xx_standard_peripheral/Source/gd32f4xx_timer.c **** void timer_break_disable(uint32_t timer_periph)
 596:../../../GD32F4xx_Firmware_Library/GD32F4xx_standard_peripheral/Source/gd32f4xx_timer.c **** {
 1219              		.loc 1 596 1 is_stmt 1 view -0
 1220              		.cfi_startproc
 1221              		@ args = 0, pretend = 0, frame = 0
 1222              		@ frame_needed = 0, uses_anonymous_args = 0
 1223              		@ link register save eliminated.
 597:../../../GD32F4xx_Firmware_Library/GD32F4xx_standard_peripheral/Source/gd32f4xx_timer.c ****     TIMER_CCHP(timer_periph) &= ~(uint32_t)TIMER_CCHP_BRKEN;
 1224              		.loc 1 597 5 view .LVU281
 1225 0000 436C     		ldr	r3, [r0, #68]
 1226              		.loc 1 597 30 is_stmt 0 view .LVU282
 1227 0002 23F48053 		bic	r3, r3, #4096
 1228 0006 4364     		str	r3, [r0, #68]
 598:../../../GD32F4xx_Firmware_Library/GD32F4xx_standard_peripheral/Source/gd32f4xx_timer.c **** }
 1229              		.loc 1 598 1 view .LVU283
 1230 0008 7047     		bx	lr
 1231              		.cfi_endproc
 1232              	.LFE144:
 1234              		.section	.text.timer_automatic_output_enable,"ax",%progbits
 1235              		.align	1
 1236              		.global	timer_automatic_output_enable
 1237              		.syntax unified
 1238              		.thumb
 1239              		.thumb_func
 1241              	timer_automatic_output_enable:
 1242              	.LVL88:
 1243              	.LFB145:
 599:../../../GD32F4xx_Firmware_Library/GD32F4xx_standard_peripheral/Source/gd32f4xx_timer.c **** 
 600:../../../GD32F4xx_Firmware_Library/GD32F4xx_standard_peripheral/Source/gd32f4xx_timer.c **** /*!
 601:../../../GD32F4xx_Firmware_Library/GD32F4xx_standard_peripheral/Source/gd32f4xx_timer.c ****     \brief      enable TIMER output automatic function
 602:../../../GD32F4xx_Firmware_Library/GD32F4xx_standard_peripheral/Source/gd32f4xx_timer.c ****     \param[in]  timer_periph: TIMERx(x=0,7)
 603:../../../GD32F4xx_Firmware_Library/GD32F4xx_standard_peripheral/Source/gd32f4xx_timer.c ****     \param[out] none
 604:../../../GD32F4xx_Firmware_Library/GD32F4xx_standard_peripheral/Source/gd32f4xx_timer.c ****     \retval     none
 605:../../../GD32F4xx_Firmware_Library/GD32F4xx_standard_peripheral/Source/gd32f4xx_timer.c **** */
 606:../../../GD32F4xx_Firmware_Library/GD32F4xx_standard_peripheral/Source/gd32f4xx_timer.c **** void timer_automatic_output_enable(uint32_t timer_periph)
 607:../../../GD32F4xx_Firmware_Library/GD32F4xx_standard_peripheral/Source/gd32f4xx_timer.c **** {
 1244              		.loc 1 607 1 is_stmt 1 view -0
 1245              		.cfi_startproc
 1246              		@ args = 0, pretend = 0, frame = 0
 1247              		@ frame_needed = 0, uses_anonymous_args = 0
 1248              		@ link register save eliminated.
 608:../../../GD32F4xx_Firmware_Library/GD32F4xx_standard_peripheral/Source/gd32f4xx_timer.c ****     TIMER_CCHP(timer_periph) |= (uint32_t)TIMER_CCHP_OAEN;
 1249              		.loc 1 608 5 view .LVU285
 1250 0000 436C     		ldr	r3, [r0, #68]
 1251              		.loc 1 608 30 is_stmt 0 view .LVU286
 1252 0002 43F48043 		orr	r3, r3, #16384
 1253 0006 4364     		str	r3, [r0, #68]
 609:../../../GD32F4xx_Firmware_Library/GD32F4xx_standard_peripheral/Source/gd32f4xx_timer.c **** }
 1254              		.loc 1 609 1 view .LVU287
 1255 0008 7047     		bx	lr
 1256              		.cfi_endproc
 1257              	.LFE145:
 1259              		.section	.text.timer_automatic_output_disable,"ax",%progbits
 1260              		.align	1
 1261              		.global	timer_automatic_output_disable
 1262              		.syntax unified
 1263              		.thumb
ARM GAS  /var/folders/h5/b3x4g50d3yx3hd9mlg8mn_600000gn/T//cc8A1z0P.s 			page 34


 1264              		.thumb_func
 1266              	timer_automatic_output_disable:
 1267              	.LVL89:
 1268              	.LFB146:
 610:../../../GD32F4xx_Firmware_Library/GD32F4xx_standard_peripheral/Source/gd32f4xx_timer.c **** 
 611:../../../GD32F4xx_Firmware_Library/GD32F4xx_standard_peripheral/Source/gd32f4xx_timer.c **** /*!
 612:../../../GD32F4xx_Firmware_Library/GD32F4xx_standard_peripheral/Source/gd32f4xx_timer.c ****     \brief      disable TIMER output automatic function
 613:../../../GD32F4xx_Firmware_Library/GD32F4xx_standard_peripheral/Source/gd32f4xx_timer.c ****     \param[in]  timer_periph: TIMERx(x=0,7)
 614:../../../GD32F4xx_Firmware_Library/GD32F4xx_standard_peripheral/Source/gd32f4xx_timer.c ****     \param[out] none
 615:../../../GD32F4xx_Firmware_Library/GD32F4xx_standard_peripheral/Source/gd32f4xx_timer.c ****     \retval     none
 616:../../../GD32F4xx_Firmware_Library/GD32F4xx_standard_peripheral/Source/gd32f4xx_timer.c **** */
 617:../../../GD32F4xx_Firmware_Library/GD32F4xx_standard_peripheral/Source/gd32f4xx_timer.c **** void timer_automatic_output_disable(uint32_t timer_periph)
 618:../../../GD32F4xx_Firmware_Library/GD32F4xx_standard_peripheral/Source/gd32f4xx_timer.c **** {
 1269              		.loc 1 618 1 is_stmt 1 view -0
 1270              		.cfi_startproc
 1271              		@ args = 0, pretend = 0, frame = 0
 1272              		@ frame_needed = 0, uses_anonymous_args = 0
 1273              		@ link register save eliminated.
 619:../../../GD32F4xx_Firmware_Library/GD32F4xx_standard_peripheral/Source/gd32f4xx_timer.c ****     TIMER_CCHP(timer_periph) &= ~(uint32_t)TIMER_CCHP_OAEN;
 1274              		.loc 1 619 5 view .LVU289
 1275 0000 436C     		ldr	r3, [r0, #68]
 1276              		.loc 1 619 30 is_stmt 0 view .LVU290
 1277 0002 23F48043 		bic	r3, r3, #16384
 1278 0006 4364     		str	r3, [r0, #68]
 620:../../../GD32F4xx_Firmware_Library/GD32F4xx_standard_peripheral/Source/gd32f4xx_timer.c **** }
 1279              		.loc 1 620 1 view .LVU291
 1280 0008 7047     		bx	lr
 1281              		.cfi_endproc
 1282              	.LFE146:
 1284              		.section	.text.timer_primary_output_config,"ax",%progbits
 1285              		.align	1
 1286              		.global	timer_primary_output_config
 1287              		.syntax unified
 1288              		.thumb
 1289              		.thumb_func
 1291              	timer_primary_output_config:
 1292              	.LVL90:
 1293              	.LFB147:
 621:../../../GD32F4xx_Firmware_Library/GD32F4xx_standard_peripheral/Source/gd32f4xx_timer.c **** 
 622:../../../GD32F4xx_Firmware_Library/GD32F4xx_standard_peripheral/Source/gd32f4xx_timer.c **** /*!
 623:../../../GD32F4xx_Firmware_Library/GD32F4xx_standard_peripheral/Source/gd32f4xx_timer.c ****     \brief      configure TIMER primary output function
 624:../../../GD32F4xx_Firmware_Library/GD32F4xx_standard_peripheral/Source/gd32f4xx_timer.c ****     \param[in]  timer_periph: TIMERx(x=0,7)
 625:../../../GD32F4xx_Firmware_Library/GD32F4xx_standard_peripheral/Source/gd32f4xx_timer.c ****     \param[in]  newvalue: ENABLE or DISABLE
 626:../../../GD32F4xx_Firmware_Library/GD32F4xx_standard_peripheral/Source/gd32f4xx_timer.c ****     \param[out] none
 627:../../../GD32F4xx_Firmware_Library/GD32F4xx_standard_peripheral/Source/gd32f4xx_timer.c ****     \retval     none
 628:../../../GD32F4xx_Firmware_Library/GD32F4xx_standard_peripheral/Source/gd32f4xx_timer.c **** */
 629:../../../GD32F4xx_Firmware_Library/GD32F4xx_standard_peripheral/Source/gd32f4xx_timer.c **** void timer_primary_output_config(uint32_t timer_periph, ControlStatus newvalue)
 630:../../../GD32F4xx_Firmware_Library/GD32F4xx_standard_peripheral/Source/gd32f4xx_timer.c **** {
 1294              		.loc 1 630 1 is_stmt 1 view -0
 1295              		.cfi_startproc
 1296              		@ args = 0, pretend = 0, frame = 0
 1297              		@ frame_needed = 0, uses_anonymous_args = 0
 1298              		@ link register save eliminated.
 631:../../../GD32F4xx_Firmware_Library/GD32F4xx_standard_peripheral/Source/gd32f4xx_timer.c ****     if(ENABLE == newvalue) {
 1299              		.loc 1 631 5 view .LVU293
 1300              		.loc 1 631 7 is_stmt 0 view .LVU294
 1301 0000 0129     		cmp	r1, #1
ARM GAS  /var/folders/h5/b3x4g50d3yx3hd9mlg8mn_600000gn/T//cc8A1z0P.s 			page 35


 1302 0002 04D0     		beq	.L79
 632:../../../GD32F4xx_Firmware_Library/GD32F4xx_standard_peripheral/Source/gd32f4xx_timer.c ****         TIMER_CCHP(timer_periph) |= (uint32_t)TIMER_CCHP_POEN;
 633:../../../GD32F4xx_Firmware_Library/GD32F4xx_standard_peripheral/Source/gd32f4xx_timer.c ****     } else {
 634:../../../GD32F4xx_Firmware_Library/GD32F4xx_standard_peripheral/Source/gd32f4xx_timer.c ****         TIMER_CCHP(timer_periph) &= (~(uint32_t)TIMER_CCHP_POEN);
 1303              		.loc 1 634 9 is_stmt 1 view .LVU295
 1304 0004 436C     		ldr	r3, [r0, #68]
 1305              		.loc 1 634 34 is_stmt 0 view .LVU296
 1306 0006 23F40043 		bic	r3, r3, #32768
 1307 000a 4364     		str	r3, [r0, #68]
 635:../../../GD32F4xx_Firmware_Library/GD32F4xx_standard_peripheral/Source/gd32f4xx_timer.c ****     }
 636:../../../GD32F4xx_Firmware_Library/GD32F4xx_standard_peripheral/Source/gd32f4xx_timer.c **** }
 1308              		.loc 1 636 1 view .LVU297
 1309 000c 7047     		bx	lr
 1310              	.L79:
 632:../../../GD32F4xx_Firmware_Library/GD32F4xx_standard_peripheral/Source/gd32f4xx_timer.c ****         TIMER_CCHP(timer_periph) |= (uint32_t)TIMER_CCHP_POEN;
 1311              		.loc 1 632 9 is_stmt 1 view .LVU298
 1312 000e 436C     		ldr	r3, [r0, #68]
 632:../../../GD32F4xx_Firmware_Library/GD32F4xx_standard_peripheral/Source/gd32f4xx_timer.c ****         TIMER_CCHP(timer_periph) |= (uint32_t)TIMER_CCHP_POEN;
 1313              		.loc 1 632 34 is_stmt 0 view .LVU299
 1314 0010 43F40043 		orr	r3, r3, #32768
 1315 0014 4364     		str	r3, [r0, #68]
 1316 0016 7047     		bx	lr
 1317              		.cfi_endproc
 1318              	.LFE147:
 1320              		.section	.text.timer_channel_control_shadow_config,"ax",%progbits
 1321              		.align	1
 1322              		.global	timer_channel_control_shadow_config
 1323              		.syntax unified
 1324              		.thumb
 1325              		.thumb_func
 1327              	timer_channel_control_shadow_config:
 1328              	.LVL91:
 1329              	.LFB148:
 637:../../../GD32F4xx_Firmware_Library/GD32F4xx_standard_peripheral/Source/gd32f4xx_timer.c **** 
 638:../../../GD32F4xx_Firmware_Library/GD32F4xx_standard_peripheral/Source/gd32f4xx_timer.c **** /*!
 639:../../../GD32F4xx_Firmware_Library/GD32F4xx_standard_peripheral/Source/gd32f4xx_timer.c ****     \brief      enable or disable channel capture/compare control shadow register
 640:../../../GD32F4xx_Firmware_Library/GD32F4xx_standard_peripheral/Source/gd32f4xx_timer.c ****     \param[in]  timer_periph: TIMERx(x=0,7)
 641:../../../GD32F4xx_Firmware_Library/GD32F4xx_standard_peripheral/Source/gd32f4xx_timer.c ****     \param[in]  newvalue: ENABLE or DISABLE
 642:../../../GD32F4xx_Firmware_Library/GD32F4xx_standard_peripheral/Source/gd32f4xx_timer.c ****     \param[out] none
 643:../../../GD32F4xx_Firmware_Library/GD32F4xx_standard_peripheral/Source/gd32f4xx_timer.c ****     \retval     none
 644:../../../GD32F4xx_Firmware_Library/GD32F4xx_standard_peripheral/Source/gd32f4xx_timer.c **** */
 645:../../../GD32F4xx_Firmware_Library/GD32F4xx_standard_peripheral/Source/gd32f4xx_timer.c **** void timer_channel_control_shadow_config(uint32_t timer_periph, ControlStatus newvalue)
 646:../../../GD32F4xx_Firmware_Library/GD32F4xx_standard_peripheral/Source/gd32f4xx_timer.c **** {
 1330              		.loc 1 646 1 is_stmt 1 view -0
 1331              		.cfi_startproc
 1332              		@ args = 0, pretend = 0, frame = 0
 1333              		@ frame_needed = 0, uses_anonymous_args = 0
 1334              		@ link register save eliminated.
 647:../../../GD32F4xx_Firmware_Library/GD32F4xx_standard_peripheral/Source/gd32f4xx_timer.c ****     if(ENABLE == newvalue) {
 1335              		.loc 1 647 5 view .LVU301
 1336              		.loc 1 647 7 is_stmt 0 view .LVU302
 1337 0000 0129     		cmp	r1, #1
 1338 0002 04D0     		beq	.L83
 648:../../../GD32F4xx_Firmware_Library/GD32F4xx_standard_peripheral/Source/gd32f4xx_timer.c ****         TIMER_CTL1(timer_periph) |= (uint32_t)TIMER_CTL1_CCSE;
 649:../../../GD32F4xx_Firmware_Library/GD32F4xx_standard_peripheral/Source/gd32f4xx_timer.c ****     } else {
 650:../../../GD32F4xx_Firmware_Library/GD32F4xx_standard_peripheral/Source/gd32f4xx_timer.c ****         TIMER_CTL1(timer_periph) &= (~(uint32_t)TIMER_CTL1_CCSE);
 1339              		.loc 1 650 9 is_stmt 1 view .LVU303
ARM GAS  /var/folders/h5/b3x4g50d3yx3hd9mlg8mn_600000gn/T//cc8A1z0P.s 			page 36


 1340 0004 4368     		ldr	r3, [r0, #4]
 1341              		.loc 1 650 34 is_stmt 0 view .LVU304
 1342 0006 23F00103 		bic	r3, r3, #1
 1343 000a 4360     		str	r3, [r0, #4]
 651:../../../GD32F4xx_Firmware_Library/GD32F4xx_standard_peripheral/Source/gd32f4xx_timer.c ****     }
 652:../../../GD32F4xx_Firmware_Library/GD32F4xx_standard_peripheral/Source/gd32f4xx_timer.c **** }
 1344              		.loc 1 652 1 view .LVU305
 1345 000c 7047     		bx	lr
 1346              	.L83:
 648:../../../GD32F4xx_Firmware_Library/GD32F4xx_standard_peripheral/Source/gd32f4xx_timer.c ****         TIMER_CTL1(timer_periph) |= (uint32_t)TIMER_CTL1_CCSE;
 1347              		.loc 1 648 9 is_stmt 1 view .LVU306
 1348 000e 4368     		ldr	r3, [r0, #4]
 648:../../../GD32F4xx_Firmware_Library/GD32F4xx_standard_peripheral/Source/gd32f4xx_timer.c ****         TIMER_CTL1(timer_periph) |= (uint32_t)TIMER_CTL1_CCSE;
 1349              		.loc 1 648 34 is_stmt 0 view .LVU307
 1350 0010 43F00103 		orr	r3, r3, #1
 1351 0014 4360     		str	r3, [r0, #4]
 1352 0016 7047     		bx	lr
 1353              		.cfi_endproc
 1354              	.LFE148:
 1356              		.section	.text.timer_channel_control_shadow_update_config,"ax",%progbits
 1357              		.align	1
 1358              		.global	timer_channel_control_shadow_update_config
 1359              		.syntax unified
 1360              		.thumb
 1361              		.thumb_func
 1363              	timer_channel_control_shadow_update_config:
 1364              	.LVL92:
 1365              	.LFB149:
 653:../../../GD32F4xx_Firmware_Library/GD32F4xx_standard_peripheral/Source/gd32f4xx_timer.c **** 
 654:../../../GD32F4xx_Firmware_Library/GD32F4xx_standard_peripheral/Source/gd32f4xx_timer.c **** /*!
 655:../../../GD32F4xx_Firmware_Library/GD32F4xx_standard_peripheral/Source/gd32f4xx_timer.c ****     \brief      configure TIMER channel control shadow register update control
 656:../../../GD32F4xx_Firmware_Library/GD32F4xx_standard_peripheral/Source/gd32f4xx_timer.c ****     \param[in]  timer_periph: TIMERx(x=0,7)
 657:../../../GD32F4xx_Firmware_Library/GD32F4xx_standard_peripheral/Source/gd32f4xx_timer.c ****     \param[in]  ccuctl: channel control shadow register update control
 658:../../../GD32F4xx_Firmware_Library/GD32F4xx_standard_peripheral/Source/gd32f4xx_timer.c ****                 only one parameter can be selected which is shown as below:
 659:../../../GD32F4xx_Firmware_Library/GD32F4xx_standard_peripheral/Source/gd32f4xx_timer.c ****       \arg        TIMER_UPDATECTL_CCU: the shadow registers update by when CMTG bit is set
 660:../../../GD32F4xx_Firmware_Library/GD32F4xx_standard_peripheral/Source/gd32f4xx_timer.c ****       \arg        TIMER_UPDATECTL_CCUTRI: the shadow registers update by when CMTG bit is set or an
 661:../../../GD32F4xx_Firmware_Library/GD32F4xx_standard_peripheral/Source/gd32f4xx_timer.c ****     \param[out] none
 662:../../../GD32F4xx_Firmware_Library/GD32F4xx_standard_peripheral/Source/gd32f4xx_timer.c ****     \retval     none
 663:../../../GD32F4xx_Firmware_Library/GD32F4xx_standard_peripheral/Source/gd32f4xx_timer.c **** */
 664:../../../GD32F4xx_Firmware_Library/GD32F4xx_standard_peripheral/Source/gd32f4xx_timer.c **** void timer_channel_control_shadow_update_config(uint32_t timer_periph, uint8_t ccuctl)
 665:../../../GD32F4xx_Firmware_Library/GD32F4xx_standard_peripheral/Source/gd32f4xx_timer.c **** {
 1366              		.loc 1 665 1 is_stmt 1 view -0
 1367              		.cfi_startproc
 1368              		@ args = 0, pretend = 0, frame = 0
 1369              		@ frame_needed = 0, uses_anonymous_args = 0
 1370              		@ link register save eliminated.
 666:../../../GD32F4xx_Firmware_Library/GD32F4xx_standard_peripheral/Source/gd32f4xx_timer.c ****     if(TIMER_UPDATECTL_CCU == ccuctl) {
 1371              		.loc 1 666 5 view .LVU309
 1372              		.loc 1 666 7 is_stmt 0 view .LVU310
 1373 0000 21B9     		cbnz	r1, .L85
 667:../../../GD32F4xx_Firmware_Library/GD32F4xx_standard_peripheral/Source/gd32f4xx_timer.c ****         TIMER_CTL1(timer_periph) &= (~(uint32_t)TIMER_CTL1_CCUC);
 1374              		.loc 1 667 9 is_stmt 1 view .LVU311
 1375 0002 4368     		ldr	r3, [r0, #4]
 1376              		.loc 1 667 34 is_stmt 0 view .LVU312
 1377 0004 23F00403 		bic	r3, r3, #4
 1378 0008 4360     		str	r3, [r0, #4]
 1379 000a 7047     		bx	lr
ARM GAS  /var/folders/h5/b3x4g50d3yx3hd9mlg8mn_600000gn/T//cc8A1z0P.s 			page 37


 1380              	.L85:
 668:../../../GD32F4xx_Firmware_Library/GD32F4xx_standard_peripheral/Source/gd32f4xx_timer.c ****     } else if(TIMER_UPDATECTL_CCUTRI == ccuctl) {
 1381              		.loc 1 668 12 is_stmt 1 view .LVU313
 1382              		.loc 1 668 14 is_stmt 0 view .LVU314
 1383 000c 0129     		cmp	r1, #1
 1384 000e 00D0     		beq	.L87
 1385              	.L84:
 669:../../../GD32F4xx_Firmware_Library/GD32F4xx_standard_peripheral/Source/gd32f4xx_timer.c ****         TIMER_CTL1(timer_periph) |= (uint32_t)TIMER_CTL1_CCUC;
 670:../../../GD32F4xx_Firmware_Library/GD32F4xx_standard_peripheral/Source/gd32f4xx_timer.c ****     } else {
 671:../../../GD32F4xx_Firmware_Library/GD32F4xx_standard_peripheral/Source/gd32f4xx_timer.c ****         /* illegal parameters */
 672:../../../GD32F4xx_Firmware_Library/GD32F4xx_standard_peripheral/Source/gd32f4xx_timer.c ****     }
 673:../../../GD32F4xx_Firmware_Library/GD32F4xx_standard_peripheral/Source/gd32f4xx_timer.c **** }
 1386              		.loc 1 673 1 view .LVU315
 1387 0010 7047     		bx	lr
 1388              	.L87:
 669:../../../GD32F4xx_Firmware_Library/GD32F4xx_standard_peripheral/Source/gd32f4xx_timer.c ****         TIMER_CTL1(timer_periph) |= (uint32_t)TIMER_CTL1_CCUC;
 1389              		.loc 1 669 9 is_stmt 1 view .LVU316
 1390 0012 4368     		ldr	r3, [r0, #4]
 669:../../../GD32F4xx_Firmware_Library/GD32F4xx_standard_peripheral/Source/gd32f4xx_timer.c ****         TIMER_CTL1(timer_periph) |= (uint32_t)TIMER_CTL1_CCUC;
 1391              		.loc 1 669 34 is_stmt 0 view .LVU317
 1392 0014 43F00403 		orr	r3, r3, #4
 1393 0018 4360     		str	r3, [r0, #4]
 672:../../../GD32F4xx_Firmware_Library/GD32F4xx_standard_peripheral/Source/gd32f4xx_timer.c **** }
 1394              		.loc 1 672 5 is_stmt 1 view .LVU318
 1395              		.loc 1 673 1 is_stmt 0 view .LVU319
 1396 001a F9E7     		b	.L84
 1397              		.cfi_endproc
 1398              	.LFE149:
 1400              		.section	.text.timer_channel_output_struct_para_init,"ax",%progbits
 1401              		.align	1
 1402              		.global	timer_channel_output_struct_para_init
 1403              		.syntax unified
 1404              		.thumb
 1405              		.thumb_func
 1407              	timer_channel_output_struct_para_init:
 1408              	.LVL93:
 1409              	.LFB150:
 674:../../../GD32F4xx_Firmware_Library/GD32F4xx_standard_peripheral/Source/gd32f4xx_timer.c **** 
 675:../../../GD32F4xx_Firmware_Library/GD32F4xx_standard_peripheral/Source/gd32f4xx_timer.c **** /*!
 676:../../../GD32F4xx_Firmware_Library/GD32F4xx_standard_peripheral/Source/gd32f4xx_timer.c ****     \brief      initialize TIMER channel output parameter struct with a default value
 677:../../../GD32F4xx_Firmware_Library/GD32F4xx_standard_peripheral/Source/gd32f4xx_timer.c ****     \param[in]  ocpara: TIMER channel n output parameter struct
 678:../../../GD32F4xx_Firmware_Library/GD32F4xx_standard_peripheral/Source/gd32f4xx_timer.c ****     \param[out] none
 679:../../../GD32F4xx_Firmware_Library/GD32F4xx_standard_peripheral/Source/gd32f4xx_timer.c ****     \retval     none
 680:../../../GD32F4xx_Firmware_Library/GD32F4xx_standard_peripheral/Source/gd32f4xx_timer.c **** */
 681:../../../GD32F4xx_Firmware_Library/GD32F4xx_standard_peripheral/Source/gd32f4xx_timer.c **** void timer_channel_output_struct_para_init(timer_oc_parameter_struct *ocpara)
 682:../../../GD32F4xx_Firmware_Library/GD32F4xx_standard_peripheral/Source/gd32f4xx_timer.c **** {
 1410              		.loc 1 682 1 is_stmt 1 view -0
 1411              		.cfi_startproc
 1412              		@ args = 0, pretend = 0, frame = 0
 1413              		@ frame_needed = 0, uses_anonymous_args = 0
 1414              		@ link register save eliminated.
 683:../../../GD32F4xx_Firmware_Library/GD32F4xx_standard_peripheral/Source/gd32f4xx_timer.c ****     /* initialize the channel output parameter struct member with the default value */
 684:../../../GD32F4xx_Firmware_Library/GD32F4xx_standard_peripheral/Source/gd32f4xx_timer.c ****     ocpara->outputstate  = (uint16_t)TIMER_CCX_DISABLE;
 1415              		.loc 1 684 5 view .LVU321
 1416              		.loc 1 684 26 is_stmt 0 view .LVU322
 1417 0000 0023     		movs	r3, #0
 1418 0002 0380     		strh	r3, [r0]	@ movhi
ARM GAS  /var/folders/h5/b3x4g50d3yx3hd9mlg8mn_600000gn/T//cc8A1z0P.s 			page 38


 685:../../../GD32F4xx_Firmware_Library/GD32F4xx_standard_peripheral/Source/gd32f4xx_timer.c ****     ocpara->outputnstate = TIMER_CCXN_DISABLE;
 1419              		.loc 1 685 5 is_stmt 1 view .LVU323
 1420              		.loc 1 685 26 is_stmt 0 view .LVU324
 1421 0004 4380     		strh	r3, [r0, #2]	@ movhi
 686:../../../GD32F4xx_Firmware_Library/GD32F4xx_standard_peripheral/Source/gd32f4xx_timer.c ****     ocpara->ocpolarity   = TIMER_OC_POLARITY_HIGH;
 1422              		.loc 1 686 5 is_stmt 1 view .LVU325
 1423              		.loc 1 686 26 is_stmt 0 view .LVU326
 1424 0006 8380     		strh	r3, [r0, #4]	@ movhi
 687:../../../GD32F4xx_Firmware_Library/GD32F4xx_standard_peripheral/Source/gd32f4xx_timer.c ****     ocpara->ocnpolarity  = TIMER_OCN_POLARITY_HIGH;
 1425              		.loc 1 687 5 is_stmt 1 view .LVU327
 1426              		.loc 1 687 26 is_stmt 0 view .LVU328
 1427 0008 C380     		strh	r3, [r0, #6]	@ movhi
 688:../../../GD32F4xx_Firmware_Library/GD32F4xx_standard_peripheral/Source/gd32f4xx_timer.c ****     ocpara->ocidlestate  = TIMER_OC_IDLE_STATE_LOW;
 1428              		.loc 1 688 5 is_stmt 1 view .LVU329
 1429              		.loc 1 688 26 is_stmt 0 view .LVU330
 1430 000a 0381     		strh	r3, [r0, #8]	@ movhi
 689:../../../GD32F4xx_Firmware_Library/GD32F4xx_standard_peripheral/Source/gd32f4xx_timer.c ****     ocpara->ocnidlestate = TIMER_OCN_IDLE_STATE_LOW;
 1431              		.loc 1 689 5 is_stmt 1 view .LVU331
 1432              		.loc 1 689 26 is_stmt 0 view .LVU332
 1433 000c 4381     		strh	r3, [r0, #10]	@ movhi
 690:../../../GD32F4xx_Firmware_Library/GD32F4xx_standard_peripheral/Source/gd32f4xx_timer.c **** }
 1434              		.loc 1 690 1 view .LVU333
 1435 000e 7047     		bx	lr
 1436              		.cfi_endproc
 1437              	.LFE150:
 1439              		.section	.text.timer_channel_output_config,"ax",%progbits
 1440              		.align	1
 1441              		.global	timer_channel_output_config
 1442              		.syntax unified
 1443              		.thumb
 1444              		.thumb_func
 1446              	timer_channel_output_config:
 1447              	.LVL94:
 1448              	.LFB151:
 691:../../../GD32F4xx_Firmware_Library/GD32F4xx_standard_peripheral/Source/gd32f4xx_timer.c **** 
 692:../../../GD32F4xx_Firmware_Library/GD32F4xx_standard_peripheral/Source/gd32f4xx_timer.c **** /*!
 693:../../../GD32F4xx_Firmware_Library/GD32F4xx_standard_peripheral/Source/gd32f4xx_timer.c ****     \brief      configure TIMER channel output function
 694:../../../GD32F4xx_Firmware_Library/GD32F4xx_standard_peripheral/Source/gd32f4xx_timer.c ****     \param[in]  timer_periph: please refer to the following parameters
 695:../../../GD32F4xx_Firmware_Library/GD32F4xx_standard_peripheral/Source/gd32f4xx_timer.c ****     \param[in]  channel:
 696:../../../GD32F4xx_Firmware_Library/GD32F4xx_standard_peripheral/Source/gd32f4xx_timer.c ****                 only one parameter can be selected which is shown as below:
 697:../../../GD32F4xx_Firmware_Library/GD32F4xx_standard_peripheral/Source/gd32f4xx_timer.c ****       \arg        TIMER_CH_0: TIMER channel 0(TIMERx(x=0..4,7..13))
 698:../../../GD32F4xx_Firmware_Library/GD32F4xx_standard_peripheral/Source/gd32f4xx_timer.c ****       \arg        TIMER_CH_1: TIMER channel 1(TIMERx(x=0..4,7,8,11))
 699:../../../GD32F4xx_Firmware_Library/GD32F4xx_standard_peripheral/Source/gd32f4xx_timer.c ****       \arg        TIMER_CH_2: TIMER channel 2(TIMERx(x=0..4,7))
 700:../../../GD32F4xx_Firmware_Library/GD32F4xx_standard_peripheral/Source/gd32f4xx_timer.c ****       \arg        TIMER_CH_3: TIMER channel 3(TIMERx(x=0..4,7))
 701:../../../GD32F4xx_Firmware_Library/GD32F4xx_standard_peripheral/Source/gd32f4xx_timer.c ****     \param[in]  ocpara: TIMER channeln output parameter struct
 702:../../../GD32F4xx_Firmware_Library/GD32F4xx_standard_peripheral/Source/gd32f4xx_timer.c ****                 outputstate: TIMER_CCX_ENABLE,TIMER_CCX_DISABLE
 703:../../../GD32F4xx_Firmware_Library/GD32F4xx_standard_peripheral/Source/gd32f4xx_timer.c ****                 outputnstate: TIMER_CCXN_ENABLE,TIMER_CCXN_DISABLE
 704:../../../GD32F4xx_Firmware_Library/GD32F4xx_standard_peripheral/Source/gd32f4xx_timer.c ****                 ocpolarity: TIMER_OC_POLARITY_HIGH,TIMER_OC_POLARITY_LOW
 705:../../../GD32F4xx_Firmware_Library/GD32F4xx_standard_peripheral/Source/gd32f4xx_timer.c ****                 ocnpolarity: TIMER_OCN_POLARITY_HIGH,TIMER_OCN_POLARITY_LOW
 706:../../../GD32F4xx_Firmware_Library/GD32F4xx_standard_peripheral/Source/gd32f4xx_timer.c ****                 ocidlestate: TIMER_OC_IDLE_STATE_LOW,TIMER_OC_IDLE_STATE_HIGH
 707:../../../GD32F4xx_Firmware_Library/GD32F4xx_standard_peripheral/Source/gd32f4xx_timer.c ****                 ocnidlestate: TIMER_OCN_IDLE_STATE_LOW,TIMER_OCN_IDLE_STATE_HIGH
 708:../../../GD32F4xx_Firmware_Library/GD32F4xx_standard_peripheral/Source/gd32f4xx_timer.c ****     \param[out] none
 709:../../../GD32F4xx_Firmware_Library/GD32F4xx_standard_peripheral/Source/gd32f4xx_timer.c ****     \retval     none
 710:../../../GD32F4xx_Firmware_Library/GD32F4xx_standard_peripheral/Source/gd32f4xx_timer.c **** */
 711:../../../GD32F4xx_Firmware_Library/GD32F4xx_standard_peripheral/Source/gd32f4xx_timer.c **** void timer_channel_output_config(uint32_t timer_periph, uint16_t channel, timer_oc_parameter_struct
 712:../../../GD32F4xx_Firmware_Library/GD32F4xx_standard_peripheral/Source/gd32f4xx_timer.c **** {
 1449              		.loc 1 712 1 is_stmt 1 view -0
ARM GAS  /var/folders/h5/b3x4g50d3yx3hd9mlg8mn_600000gn/T//cc8A1z0P.s 			page 39


 1450              		.cfi_startproc
 1451              		@ args = 0, pretend = 0, frame = 0
 1452              		@ frame_needed = 0, uses_anonymous_args = 0
 1453              		@ link register save eliminated.
 713:../../../GD32F4xx_Firmware_Library/GD32F4xx_standard_peripheral/Source/gd32f4xx_timer.c ****     switch(channel) {
 1454              		.loc 1 713 5 view .LVU335
 1455 0000 0329     		cmp	r1, #3
 1456 0002 00F2EE80 		bhi	.L89
 1457 0006 DFE811F0 		tbh	[pc, r1, lsl #1]
 1458              	.L92:
 1459 000a 0400     		.2byte	(.L95-.L92)/2
 1460 000c 4100     		.2byte	(.L94-.L92)/2
 1461 000e 8400     		.2byte	(.L93-.L92)/2
 1462 0010 C600     		.2byte	(.L91-.L92)/2
 1463              		.p2align 1
 1464              	.L95:
 714:../../../GD32F4xx_Firmware_Library/GD32F4xx_standard_peripheral/Source/gd32f4xx_timer.c ****     /* configure TIMER_CH_0 */
 715:../../../GD32F4xx_Firmware_Library/GD32F4xx_standard_peripheral/Source/gd32f4xx_timer.c ****     case TIMER_CH_0:
 716:../../../GD32F4xx_Firmware_Library/GD32F4xx_standard_peripheral/Source/gd32f4xx_timer.c ****         /* reset the CH0EN bit */
 717:../../../GD32F4xx_Firmware_Library/GD32F4xx_standard_peripheral/Source/gd32f4xx_timer.c ****         TIMER_CHCTL2(timer_periph) &= (~(uint32_t)TIMER_CHCTL2_CH0EN);
 1465              		.loc 1 717 9 view .LVU336
 1466 0012 036A     		ldr	r3, [r0, #32]
 1467              		.loc 1 717 36 is_stmt 0 view .LVU337
 1468 0014 23F00103 		bic	r3, r3, #1
 1469 0018 0362     		str	r3, [r0, #32]
 718:../../../GD32F4xx_Firmware_Library/GD32F4xx_standard_peripheral/Source/gd32f4xx_timer.c ****         TIMER_CHCTL0(timer_periph) &= ~(uint32_t)TIMER_CHCTL0_CH0MS;
 1470              		.loc 1 718 9 is_stmt 1 view .LVU338
 1471 001a 8369     		ldr	r3, [r0, #24]
 1472              		.loc 1 718 36 is_stmt 0 view .LVU339
 1473 001c 23F00303 		bic	r3, r3, #3
 1474 0020 8361     		str	r3, [r0, #24]
 719:../../../GD32F4xx_Firmware_Library/GD32F4xx_standard_peripheral/Source/gd32f4xx_timer.c ****         /* set the CH0EN bit */
 720:../../../GD32F4xx_Firmware_Library/GD32F4xx_standard_peripheral/Source/gd32f4xx_timer.c ****         TIMER_CHCTL2(timer_periph) |= (uint32_t)ocpara->outputstate;
 1475              		.loc 1 720 9 is_stmt 1 view .LVU340
 1476 0022 036A     		ldr	r3, [r0, #32]
 1477              		.loc 1 720 55 is_stmt 0 view .LVU341
 1478 0024 1188     		ldrh	r1, [r2]
 1479              	.LVL95:
 1480              		.loc 1 720 36 view .LVU342
 1481 0026 0B43     		orrs	r3, r3, r1
 1482 0028 0362     		str	r3, [r0, #32]
 721:../../../GD32F4xx_Firmware_Library/GD32F4xx_standard_peripheral/Source/gd32f4xx_timer.c ****         /* reset the CH0P bit */
 722:../../../GD32F4xx_Firmware_Library/GD32F4xx_standard_peripheral/Source/gd32f4xx_timer.c ****         TIMER_CHCTL2(timer_periph) &= (~(uint32_t)TIMER_CHCTL2_CH0P);
 1483              		.loc 1 722 9 is_stmt 1 view .LVU343
 1484 002a 036A     		ldr	r3, [r0, #32]
 1485              		.loc 1 722 36 is_stmt 0 view .LVU344
 1486 002c 23F00203 		bic	r3, r3, #2
 1487 0030 0362     		str	r3, [r0, #32]
 723:../../../GD32F4xx_Firmware_Library/GD32F4xx_standard_peripheral/Source/gd32f4xx_timer.c ****         /* set the CH0P bit */
 724:../../../GD32F4xx_Firmware_Library/GD32F4xx_standard_peripheral/Source/gd32f4xx_timer.c ****         TIMER_CHCTL2(timer_periph) |= (uint32_t)ocpara->ocpolarity;
 1488              		.loc 1 724 9 is_stmt 1 view .LVU345
 1489 0032 036A     		ldr	r3, [r0, #32]
 1490              		.loc 1 724 55 is_stmt 0 view .LVU346
 1491 0034 9188     		ldrh	r1, [r2, #4]
 1492              		.loc 1 724 36 view .LVU347
 1493 0036 0B43     		orrs	r3, r3, r1
 1494 0038 0362     		str	r3, [r0, #32]
ARM GAS  /var/folders/h5/b3x4g50d3yx3hd9mlg8mn_600000gn/T//cc8A1z0P.s 			page 40


 725:../../../GD32F4xx_Firmware_Library/GD32F4xx_standard_peripheral/Source/gd32f4xx_timer.c **** 
 726:../../../GD32F4xx_Firmware_Library/GD32F4xx_standard_peripheral/Source/gd32f4xx_timer.c ****         if((TIMER0 == timer_periph) || (TIMER7 == timer_periph)) {
 1495              		.loc 1 726 9 is_stmt 1 view .LVU348
 1496              		.loc 1 726 11 is_stmt 0 view .LVU349
 1497 003a 6A4B     		ldr	r3, .L101
 1498 003c 9842     		cmp	r0, r3
 1499 003e 04D0     		beq	.L96
 1500              		.loc 1 726 37 discriminator 1 view .LVU350
 1501 0040 03F58063 		add	r3, r3, #1024
 1502 0044 9842     		cmp	r0, r3
 1503 0046 40F0CC80 		bne	.L89
 1504              	.L96:
 727:../../../GD32F4xx_Firmware_Library/GD32F4xx_standard_peripheral/Source/gd32f4xx_timer.c ****             /* reset the CH0NEN bit */
 728:../../../GD32F4xx_Firmware_Library/GD32F4xx_standard_peripheral/Source/gd32f4xx_timer.c ****             TIMER_CHCTL2(timer_periph) &= (~(uint32_t)TIMER_CHCTL2_CH0NEN);
 1505              		.loc 1 728 13 is_stmt 1 view .LVU351
 1506 004a 036A     		ldr	r3, [r0, #32]
 1507              		.loc 1 728 40 is_stmt 0 view .LVU352
 1508 004c 23F00403 		bic	r3, r3, #4
 1509 0050 0362     		str	r3, [r0, #32]
 729:../../../GD32F4xx_Firmware_Library/GD32F4xx_standard_peripheral/Source/gd32f4xx_timer.c ****             /* set the CH0NEN bit */
 730:../../../GD32F4xx_Firmware_Library/GD32F4xx_standard_peripheral/Source/gd32f4xx_timer.c ****             TIMER_CHCTL2(timer_periph) |= (uint32_t)ocpara->outputnstate;
 1510              		.loc 1 730 13 is_stmt 1 view .LVU353
 1511 0052 036A     		ldr	r3, [r0, #32]
 1512              		.loc 1 730 59 is_stmt 0 view .LVU354
 1513 0054 5188     		ldrh	r1, [r2, #2]
 1514              		.loc 1 730 40 view .LVU355
 1515 0056 0B43     		orrs	r3, r3, r1
 1516 0058 0362     		str	r3, [r0, #32]
 731:../../../GD32F4xx_Firmware_Library/GD32F4xx_standard_peripheral/Source/gd32f4xx_timer.c ****             /* reset the CH0NP bit */
 732:../../../GD32F4xx_Firmware_Library/GD32F4xx_standard_peripheral/Source/gd32f4xx_timer.c ****             TIMER_CHCTL2(timer_periph) &= (~(uint32_t)TIMER_CHCTL2_CH0NP);
 1517              		.loc 1 732 13 is_stmt 1 view .LVU356
 1518 005a 036A     		ldr	r3, [r0, #32]
 1519              		.loc 1 732 40 is_stmt 0 view .LVU357
 1520 005c 23F00803 		bic	r3, r3, #8
 1521 0060 0362     		str	r3, [r0, #32]
 733:../../../GD32F4xx_Firmware_Library/GD32F4xx_standard_peripheral/Source/gd32f4xx_timer.c ****             /* set the CH0NP bit */
 734:../../../GD32F4xx_Firmware_Library/GD32F4xx_standard_peripheral/Source/gd32f4xx_timer.c ****             TIMER_CHCTL2(timer_periph) |= (uint32_t)ocpara->ocnpolarity;
 1522              		.loc 1 734 13 is_stmt 1 view .LVU358
 1523 0062 036A     		ldr	r3, [r0, #32]
 1524              		.loc 1 734 59 is_stmt 0 view .LVU359
 1525 0064 D188     		ldrh	r1, [r2, #6]
 1526              		.loc 1 734 40 view .LVU360
 1527 0066 0B43     		orrs	r3, r3, r1
 1528 0068 0362     		str	r3, [r0, #32]
 735:../../../GD32F4xx_Firmware_Library/GD32F4xx_standard_peripheral/Source/gd32f4xx_timer.c ****             /* reset the ISO0 bit */
 736:../../../GD32F4xx_Firmware_Library/GD32F4xx_standard_peripheral/Source/gd32f4xx_timer.c ****             TIMER_CTL1(timer_periph) &= (~(uint32_t)TIMER_CTL1_ISO0);
 1529              		.loc 1 736 13 is_stmt 1 view .LVU361
 1530 006a 4368     		ldr	r3, [r0, #4]
 1531              		.loc 1 736 38 is_stmt 0 view .LVU362
 1532 006c 23F48073 		bic	r3, r3, #256
 1533 0070 4360     		str	r3, [r0, #4]
 737:../../../GD32F4xx_Firmware_Library/GD32F4xx_standard_peripheral/Source/gd32f4xx_timer.c ****             /* set the ISO0 bit */
 738:../../../GD32F4xx_Firmware_Library/GD32F4xx_standard_peripheral/Source/gd32f4xx_timer.c ****             TIMER_CTL1(timer_periph) |= (uint32_t)ocpara->ocidlestate;
 1534              		.loc 1 738 13 is_stmt 1 view .LVU363
 1535 0072 4368     		ldr	r3, [r0, #4]
 1536              		.loc 1 738 57 is_stmt 0 view .LVU364
 1537 0074 1189     		ldrh	r1, [r2, #8]
ARM GAS  /var/folders/h5/b3x4g50d3yx3hd9mlg8mn_600000gn/T//cc8A1z0P.s 			page 41


 1538              		.loc 1 738 38 view .LVU365
 1539 0076 0B43     		orrs	r3, r3, r1
 1540 0078 4360     		str	r3, [r0, #4]
 739:../../../GD32F4xx_Firmware_Library/GD32F4xx_standard_peripheral/Source/gd32f4xx_timer.c ****             /* reset the ISO0N bit */
 740:../../../GD32F4xx_Firmware_Library/GD32F4xx_standard_peripheral/Source/gd32f4xx_timer.c ****             TIMER_CTL1(timer_periph) &= (~(uint32_t)TIMER_CTL1_ISO0N);
 1541              		.loc 1 740 13 is_stmt 1 view .LVU366
 1542 007a 4368     		ldr	r3, [r0, #4]
 1543              		.loc 1 740 38 is_stmt 0 view .LVU367
 1544 007c 23F40073 		bic	r3, r3, #512
 1545 0080 4360     		str	r3, [r0, #4]
 741:../../../GD32F4xx_Firmware_Library/GD32F4xx_standard_peripheral/Source/gd32f4xx_timer.c ****             /* set the ISO0N bit */
 742:../../../GD32F4xx_Firmware_Library/GD32F4xx_standard_peripheral/Source/gd32f4xx_timer.c ****             TIMER_CTL1(timer_periph) |= (uint32_t)ocpara->ocnidlestate;
 1546              		.loc 1 742 13 is_stmt 1 view .LVU368
 1547 0082 4368     		ldr	r3, [r0, #4]
 1548              		.loc 1 742 57 is_stmt 0 view .LVU369
 1549 0084 5289     		ldrh	r2, [r2, #10]
 1550              	.LVL96:
 1551              		.loc 1 742 38 view .LVU370
 1552 0086 1343     		orrs	r3, r3, r2
 1553 0088 4360     		str	r3, [r0, #4]
 1554 008a 7047     		bx	lr
 1555              	.LVL97:
 1556              	.L94:
 743:../../../GD32F4xx_Firmware_Library/GD32F4xx_standard_peripheral/Source/gd32f4xx_timer.c ****         }
 744:../../../GD32F4xx_Firmware_Library/GD32F4xx_standard_peripheral/Source/gd32f4xx_timer.c ****         break;
 745:../../../GD32F4xx_Firmware_Library/GD32F4xx_standard_peripheral/Source/gd32f4xx_timer.c ****     /* configure TIMER_CH_1 */
 746:../../../GD32F4xx_Firmware_Library/GD32F4xx_standard_peripheral/Source/gd32f4xx_timer.c ****     case TIMER_CH_1:
 747:../../../GD32F4xx_Firmware_Library/GD32F4xx_standard_peripheral/Source/gd32f4xx_timer.c ****         /* reset the CH1EN bit */
 748:../../../GD32F4xx_Firmware_Library/GD32F4xx_standard_peripheral/Source/gd32f4xx_timer.c ****         TIMER_CHCTL2(timer_periph) &= (~(uint32_t)TIMER_CHCTL2_CH1EN);
 1557              		.loc 1 748 9 is_stmt 1 view .LVU371
 1558 008c 036A     		ldr	r3, [r0, #32]
 1559              		.loc 1 748 36 is_stmt 0 view .LVU372
 1560 008e 23F01003 		bic	r3, r3, #16
 1561 0092 0362     		str	r3, [r0, #32]
 749:../../../GD32F4xx_Firmware_Library/GD32F4xx_standard_peripheral/Source/gd32f4xx_timer.c ****         TIMER_CHCTL0(timer_periph) &= ~(uint32_t)TIMER_CHCTL0_CH1MS;
 1562              		.loc 1 749 9 is_stmt 1 view .LVU373
 1563 0094 8369     		ldr	r3, [r0, #24]
 1564              		.loc 1 749 36 is_stmt 0 view .LVU374
 1565 0096 23F44073 		bic	r3, r3, #768
 1566 009a 8361     		str	r3, [r0, #24]
 750:../../../GD32F4xx_Firmware_Library/GD32F4xx_standard_peripheral/Source/gd32f4xx_timer.c ****         /* set the CH1EN bit */
 751:../../../GD32F4xx_Firmware_Library/GD32F4xx_standard_peripheral/Source/gd32f4xx_timer.c ****         TIMER_CHCTL2(timer_periph) |= (uint32_t)((uint32_t)ocpara->outputstate << 4U);
 1567              		.loc 1 751 9 is_stmt 1 view .LVU375
 1568 009c 036A     		ldr	r3, [r0, #32]
 1569              		.loc 1 751 66 is_stmt 0 view .LVU376
 1570 009e 1188     		ldrh	r1, [r2]
 1571              	.LVL98:
 1572              		.loc 1 751 36 view .LVU377
 1573 00a0 43EA0113 		orr	r3, r3, r1, lsl #4
 1574 00a4 0362     		str	r3, [r0, #32]
 752:../../../GD32F4xx_Firmware_Library/GD32F4xx_standard_peripheral/Source/gd32f4xx_timer.c ****         /* reset the CH1P bit */
 753:../../../GD32F4xx_Firmware_Library/GD32F4xx_standard_peripheral/Source/gd32f4xx_timer.c ****         TIMER_CHCTL2(timer_periph) &= (~(uint32_t)TIMER_CHCTL2_CH1P);
 1575              		.loc 1 753 9 is_stmt 1 view .LVU378
 1576 00a6 036A     		ldr	r3, [r0, #32]
 1577              		.loc 1 753 36 is_stmt 0 view .LVU379
 1578 00a8 23F02003 		bic	r3, r3, #32
 1579 00ac 0362     		str	r3, [r0, #32]
ARM GAS  /var/folders/h5/b3x4g50d3yx3hd9mlg8mn_600000gn/T//cc8A1z0P.s 			page 42


 754:../../../GD32F4xx_Firmware_Library/GD32F4xx_standard_peripheral/Source/gd32f4xx_timer.c ****         /* set the CH1P bit */
 755:../../../GD32F4xx_Firmware_Library/GD32F4xx_standard_peripheral/Source/gd32f4xx_timer.c ****         TIMER_CHCTL2(timer_periph) |= (uint32_t)((uint32_t)(ocpara->ocpolarity) << 4U);
 1580              		.loc 1 755 9 is_stmt 1 view .LVU380
 1581 00ae 036A     		ldr	r3, [r0, #32]
 1582              		.loc 1 755 67 is_stmt 0 view .LVU381
 1583 00b0 9188     		ldrh	r1, [r2, #4]
 1584              		.loc 1 755 36 view .LVU382
 1585 00b2 43EA0113 		orr	r3, r3, r1, lsl #4
 1586 00b6 0362     		str	r3, [r0, #32]
 756:../../../GD32F4xx_Firmware_Library/GD32F4xx_standard_peripheral/Source/gd32f4xx_timer.c **** 
 757:../../../GD32F4xx_Firmware_Library/GD32F4xx_standard_peripheral/Source/gd32f4xx_timer.c ****         if((TIMER0 == timer_periph) || (TIMER7 == timer_periph)) {
 1587              		.loc 1 757 9 is_stmt 1 view .LVU383
 1588              		.loc 1 757 11 is_stmt 0 view .LVU384
 1589 00b8 4A4B     		ldr	r3, .L101
 1590 00ba 9842     		cmp	r0, r3
 1591 00bc 04D0     		beq	.L97
 1592              		.loc 1 757 37 discriminator 1 view .LVU385
 1593 00be 03F58063 		add	r3, r3, #1024
 1594 00c2 9842     		cmp	r0, r3
 1595 00c4 40F08D80 		bne	.L89
 1596              	.L97:
 758:../../../GD32F4xx_Firmware_Library/GD32F4xx_standard_peripheral/Source/gd32f4xx_timer.c ****             /* reset the CH1NEN bit */
 759:../../../GD32F4xx_Firmware_Library/GD32F4xx_standard_peripheral/Source/gd32f4xx_timer.c ****             TIMER_CHCTL2(timer_periph) &= (~(uint32_t)TIMER_CHCTL2_CH1NEN);
 1597              		.loc 1 759 13 is_stmt 1 view .LVU386
 1598 00c8 036A     		ldr	r3, [r0, #32]
 1599              		.loc 1 759 40 is_stmt 0 view .LVU387
 1600 00ca 23F04003 		bic	r3, r3, #64
 1601 00ce 0362     		str	r3, [r0, #32]
 760:../../../GD32F4xx_Firmware_Library/GD32F4xx_standard_peripheral/Source/gd32f4xx_timer.c ****             /* set the CH1NEN bit */
 761:../../../GD32F4xx_Firmware_Library/GD32F4xx_standard_peripheral/Source/gd32f4xx_timer.c ****             TIMER_CHCTL2(timer_periph) |= (uint32_t)((uint32_t)(ocpara->outputnstate) << 4U);
 1602              		.loc 1 761 13 is_stmt 1 view .LVU388
 1603 00d0 036A     		ldr	r3, [r0, #32]
 1604              		.loc 1 761 71 is_stmt 0 view .LVU389
 1605 00d2 5188     		ldrh	r1, [r2, #2]
 1606              		.loc 1 761 40 view .LVU390
 1607 00d4 43EA0113 		orr	r3, r3, r1, lsl #4
 1608 00d8 0362     		str	r3, [r0, #32]
 762:../../../GD32F4xx_Firmware_Library/GD32F4xx_standard_peripheral/Source/gd32f4xx_timer.c ****             /* reset the CH1NP bit */
 763:../../../GD32F4xx_Firmware_Library/GD32F4xx_standard_peripheral/Source/gd32f4xx_timer.c ****             TIMER_CHCTL2(timer_periph) &= (~(uint32_t)TIMER_CHCTL2_CH1NP);
 1609              		.loc 1 763 13 is_stmt 1 view .LVU391
 1610 00da 036A     		ldr	r3, [r0, #32]
 1611              		.loc 1 763 40 is_stmt 0 view .LVU392
 1612 00dc 23F08003 		bic	r3, r3, #128
 1613 00e0 0362     		str	r3, [r0, #32]
 764:../../../GD32F4xx_Firmware_Library/GD32F4xx_standard_peripheral/Source/gd32f4xx_timer.c ****             /* set the CH1NP bit */
 765:../../../GD32F4xx_Firmware_Library/GD32F4xx_standard_peripheral/Source/gd32f4xx_timer.c ****             TIMER_CHCTL2(timer_periph) |= (uint32_t)((uint32_t)(ocpara->ocnpolarity) << 4U);
 1614              		.loc 1 765 13 is_stmt 1 view .LVU393
 1615 00e2 036A     		ldr	r3, [r0, #32]
 1616              		.loc 1 765 71 is_stmt 0 view .LVU394
 1617 00e4 D188     		ldrh	r1, [r2, #6]
 1618              		.loc 1 765 40 view .LVU395
 1619 00e6 43EA0113 		orr	r3, r3, r1, lsl #4
 1620 00ea 0362     		str	r3, [r0, #32]
 766:../../../GD32F4xx_Firmware_Library/GD32F4xx_standard_peripheral/Source/gd32f4xx_timer.c ****             /* reset the ISO1 bit */
 767:../../../GD32F4xx_Firmware_Library/GD32F4xx_standard_peripheral/Source/gd32f4xx_timer.c ****             TIMER_CTL1(timer_periph) &= (~(uint32_t)TIMER_CTL1_ISO1);
 1621              		.loc 1 767 13 is_stmt 1 view .LVU396
 1622 00ec 4368     		ldr	r3, [r0, #4]
ARM GAS  /var/folders/h5/b3x4g50d3yx3hd9mlg8mn_600000gn/T//cc8A1z0P.s 			page 43


 1623              		.loc 1 767 38 is_stmt 0 view .LVU397
 1624 00ee 23F48063 		bic	r3, r3, #1024
 1625 00f2 4360     		str	r3, [r0, #4]
 768:../../../GD32F4xx_Firmware_Library/GD32F4xx_standard_peripheral/Source/gd32f4xx_timer.c ****             /* set the ISO1 bit */
 769:../../../GD32F4xx_Firmware_Library/GD32F4xx_standard_peripheral/Source/gd32f4xx_timer.c ****             TIMER_CTL1(timer_periph) |= (uint32_t)((uint32_t)(ocpara->ocidlestate) << 2U);
 1626              		.loc 1 769 13 is_stmt 1 view .LVU398
 1627 00f4 4368     		ldr	r3, [r0, #4]
 1628              		.loc 1 769 69 is_stmt 0 view .LVU399
 1629 00f6 1189     		ldrh	r1, [r2, #8]
 1630              		.loc 1 769 38 view .LVU400
 1631 00f8 43EA8103 		orr	r3, r3, r1, lsl #2
 1632 00fc 4360     		str	r3, [r0, #4]
 770:../../../GD32F4xx_Firmware_Library/GD32F4xx_standard_peripheral/Source/gd32f4xx_timer.c ****             /* reset the ISO1N bit */
 771:../../../GD32F4xx_Firmware_Library/GD32F4xx_standard_peripheral/Source/gd32f4xx_timer.c ****             TIMER_CTL1(timer_periph) &= (~(uint32_t)TIMER_CTL1_ISO1N);
 1633              		.loc 1 771 13 is_stmt 1 view .LVU401
 1634 00fe 4368     		ldr	r3, [r0, #4]
 1635              		.loc 1 771 38 is_stmt 0 view .LVU402
 1636 0100 23F40063 		bic	r3, r3, #2048
 1637 0104 4360     		str	r3, [r0, #4]
 772:../../../GD32F4xx_Firmware_Library/GD32F4xx_standard_peripheral/Source/gd32f4xx_timer.c ****             /* set the ISO1N bit */
 773:../../../GD32F4xx_Firmware_Library/GD32F4xx_standard_peripheral/Source/gd32f4xx_timer.c ****             TIMER_CTL1(timer_periph) |= (uint32_t)((uint32_t)(ocpara->ocnidlestate) << 2U);
 1638              		.loc 1 773 13 is_stmt 1 view .LVU403
 1639 0106 4368     		ldr	r3, [r0, #4]
 1640              		.loc 1 773 69 is_stmt 0 view .LVU404
 1641 0108 5289     		ldrh	r2, [r2, #10]
 1642              	.LVL99:
 1643              		.loc 1 773 38 view .LVU405
 1644 010a 43EA8203 		orr	r3, r3, r2, lsl #2
 1645 010e 4360     		str	r3, [r0, #4]
 1646 0110 7047     		bx	lr
 1647              	.LVL100:
 1648              	.L93:
 774:../../../GD32F4xx_Firmware_Library/GD32F4xx_standard_peripheral/Source/gd32f4xx_timer.c ****         }
 775:../../../GD32F4xx_Firmware_Library/GD32F4xx_standard_peripheral/Source/gd32f4xx_timer.c ****         break;
 776:../../../GD32F4xx_Firmware_Library/GD32F4xx_standard_peripheral/Source/gd32f4xx_timer.c ****     /* configure TIMER_CH_2 */
 777:../../../GD32F4xx_Firmware_Library/GD32F4xx_standard_peripheral/Source/gd32f4xx_timer.c ****     case TIMER_CH_2:
 778:../../../GD32F4xx_Firmware_Library/GD32F4xx_standard_peripheral/Source/gd32f4xx_timer.c ****         /* reset the CH2EN bit */
 779:../../../GD32F4xx_Firmware_Library/GD32F4xx_standard_peripheral/Source/gd32f4xx_timer.c ****         TIMER_CHCTL2(timer_periph) &= (~(uint32_t)TIMER_CHCTL2_CH2EN);
 1649              		.loc 1 779 9 is_stmt 1 view .LVU406
 1650 0112 036A     		ldr	r3, [r0, #32]
 1651              		.loc 1 779 36 is_stmt 0 view .LVU407
 1652 0114 23F48073 		bic	r3, r3, #256
 1653 0118 0362     		str	r3, [r0, #32]
 780:../../../GD32F4xx_Firmware_Library/GD32F4xx_standard_peripheral/Source/gd32f4xx_timer.c ****         TIMER_CHCTL1(timer_periph) &= ~(uint32_t)TIMER_CHCTL1_CH2MS;
 1654              		.loc 1 780 9 is_stmt 1 view .LVU408
 1655 011a C369     		ldr	r3, [r0, #28]
 1656              		.loc 1 780 36 is_stmt 0 view .LVU409
 1657 011c 23F00303 		bic	r3, r3, #3
 1658 0120 C361     		str	r3, [r0, #28]
 781:../../../GD32F4xx_Firmware_Library/GD32F4xx_standard_peripheral/Source/gd32f4xx_timer.c ****         /* set the CH2EN bit */
 782:../../../GD32F4xx_Firmware_Library/GD32F4xx_standard_peripheral/Source/gd32f4xx_timer.c ****         TIMER_CHCTL2(timer_periph) |= (uint32_t)((uint32_t)ocpara->outputstate << 8U);
 1659              		.loc 1 782 9 is_stmt 1 view .LVU410
 1660 0122 036A     		ldr	r3, [r0, #32]
 1661              		.loc 1 782 66 is_stmt 0 view .LVU411
 1662 0124 1188     		ldrh	r1, [r2]
 1663              	.LVL101:
 1664              		.loc 1 782 36 view .LVU412
ARM GAS  /var/folders/h5/b3x4g50d3yx3hd9mlg8mn_600000gn/T//cc8A1z0P.s 			page 44


 1665 0126 43EA0123 		orr	r3, r3, r1, lsl #8
 1666 012a 0362     		str	r3, [r0, #32]
 783:../../../GD32F4xx_Firmware_Library/GD32F4xx_standard_peripheral/Source/gd32f4xx_timer.c ****         /* reset the CH2P bit */
 784:../../../GD32F4xx_Firmware_Library/GD32F4xx_standard_peripheral/Source/gd32f4xx_timer.c ****         TIMER_CHCTL2(timer_periph) &= (~(uint32_t)TIMER_CHCTL2_CH2P);
 1667              		.loc 1 784 9 is_stmt 1 view .LVU413
 1668 012c 036A     		ldr	r3, [r0, #32]
 1669              		.loc 1 784 36 is_stmt 0 view .LVU414
 1670 012e 23F40073 		bic	r3, r3, #512
 1671 0132 0362     		str	r3, [r0, #32]
 785:../../../GD32F4xx_Firmware_Library/GD32F4xx_standard_peripheral/Source/gd32f4xx_timer.c ****         /* set the CH2P bit */
 786:../../../GD32F4xx_Firmware_Library/GD32F4xx_standard_peripheral/Source/gd32f4xx_timer.c ****         TIMER_CHCTL2(timer_periph) |= (uint32_t)((uint32_t)(ocpara->ocpolarity) << 8U);
 1672              		.loc 1 786 9 is_stmt 1 view .LVU415
 1673 0134 036A     		ldr	r3, [r0, #32]
 1674              		.loc 1 786 67 is_stmt 0 view .LVU416
 1675 0136 9188     		ldrh	r1, [r2, #4]
 1676              		.loc 1 786 36 view .LVU417
 1677 0138 43EA0123 		orr	r3, r3, r1, lsl #8
 1678 013c 0362     		str	r3, [r0, #32]
 787:../../../GD32F4xx_Firmware_Library/GD32F4xx_standard_peripheral/Source/gd32f4xx_timer.c **** 
 788:../../../GD32F4xx_Firmware_Library/GD32F4xx_standard_peripheral/Source/gd32f4xx_timer.c ****         if((TIMER0 == timer_periph) || (TIMER7 == timer_periph)) {
 1679              		.loc 1 788 9 is_stmt 1 view .LVU418
 1680              		.loc 1 788 11 is_stmt 0 view .LVU419
 1681 013e 294B     		ldr	r3, .L101
 1682 0140 9842     		cmp	r0, r3
 1683 0142 03D0     		beq	.L98
 1684              		.loc 1 788 37 discriminator 1 view .LVU420
 1685 0144 03F58063 		add	r3, r3, #1024
 1686 0148 9842     		cmp	r0, r3
 1687 014a 4AD1     		bne	.L89
 1688              	.L98:
 789:../../../GD32F4xx_Firmware_Library/GD32F4xx_standard_peripheral/Source/gd32f4xx_timer.c ****             /* reset the CH2NEN bit */
 790:../../../GD32F4xx_Firmware_Library/GD32F4xx_standard_peripheral/Source/gd32f4xx_timer.c ****             TIMER_CHCTL2(timer_periph) &= (~(uint32_t)TIMER_CHCTL2_CH2NEN);
 1689              		.loc 1 790 13 is_stmt 1 view .LVU421
 1690 014c 036A     		ldr	r3, [r0, #32]
 1691              		.loc 1 790 40 is_stmt 0 view .LVU422
 1692 014e 23F48063 		bic	r3, r3, #1024
 1693 0152 0362     		str	r3, [r0, #32]
 791:../../../GD32F4xx_Firmware_Library/GD32F4xx_standard_peripheral/Source/gd32f4xx_timer.c ****             /* set the CH2NEN bit */
 792:../../../GD32F4xx_Firmware_Library/GD32F4xx_standard_peripheral/Source/gd32f4xx_timer.c ****             TIMER_CHCTL2(timer_periph) |= (uint32_t)((uint32_t)(ocpara->outputnstate) << 8U);
 1694              		.loc 1 792 13 is_stmt 1 view .LVU423
 1695 0154 036A     		ldr	r3, [r0, #32]
 1696              		.loc 1 792 71 is_stmt 0 view .LVU424
 1697 0156 5188     		ldrh	r1, [r2, #2]
 1698              		.loc 1 792 40 view .LVU425
 1699 0158 43EA0123 		orr	r3, r3, r1, lsl #8
 1700 015c 0362     		str	r3, [r0, #32]
 793:../../../GD32F4xx_Firmware_Library/GD32F4xx_standard_peripheral/Source/gd32f4xx_timer.c ****             /* reset the CH2NP bit */
 794:../../../GD32F4xx_Firmware_Library/GD32F4xx_standard_peripheral/Source/gd32f4xx_timer.c ****             TIMER_CHCTL2(timer_periph) &= (~(uint32_t)TIMER_CHCTL2_CH2NP);
 1701              		.loc 1 794 13 is_stmt 1 view .LVU426
 1702 015e 036A     		ldr	r3, [r0, #32]
 1703              		.loc 1 794 40 is_stmt 0 view .LVU427
 1704 0160 23F40063 		bic	r3, r3, #2048
 1705 0164 0362     		str	r3, [r0, #32]
 795:../../../GD32F4xx_Firmware_Library/GD32F4xx_standard_peripheral/Source/gd32f4xx_timer.c ****             /* set the CH2NP bit */
 796:../../../GD32F4xx_Firmware_Library/GD32F4xx_standard_peripheral/Source/gd32f4xx_timer.c ****             TIMER_CHCTL2(timer_periph) |= (uint32_t)((uint32_t)(ocpara->ocnpolarity) << 8U);
 1706              		.loc 1 796 13 is_stmt 1 view .LVU428
 1707 0166 036A     		ldr	r3, [r0, #32]
ARM GAS  /var/folders/h5/b3x4g50d3yx3hd9mlg8mn_600000gn/T//cc8A1z0P.s 			page 45


 1708              		.loc 1 796 71 is_stmt 0 view .LVU429
 1709 0168 D188     		ldrh	r1, [r2, #6]
 1710              		.loc 1 796 40 view .LVU430
 1711 016a 43EA0123 		orr	r3, r3, r1, lsl #8
 1712 016e 0362     		str	r3, [r0, #32]
 797:../../../GD32F4xx_Firmware_Library/GD32F4xx_standard_peripheral/Source/gd32f4xx_timer.c ****             /* reset the ISO2 bit */
 798:../../../GD32F4xx_Firmware_Library/GD32F4xx_standard_peripheral/Source/gd32f4xx_timer.c ****             TIMER_CTL1(timer_periph) &= (~(uint32_t)TIMER_CTL1_ISO2);
 1713              		.loc 1 798 13 is_stmt 1 view .LVU431
 1714 0170 4368     		ldr	r3, [r0, #4]
 1715              		.loc 1 798 38 is_stmt 0 view .LVU432
 1716 0172 23F48053 		bic	r3, r3, #4096
 1717 0176 4360     		str	r3, [r0, #4]
 799:../../../GD32F4xx_Firmware_Library/GD32F4xx_standard_peripheral/Source/gd32f4xx_timer.c ****             /* set the ISO2 bit */
 800:../../../GD32F4xx_Firmware_Library/GD32F4xx_standard_peripheral/Source/gd32f4xx_timer.c ****             TIMER_CTL1(timer_periph) |= (uint32_t)((uint32_t)(ocpara->ocidlestate) << 4U);
 1718              		.loc 1 800 13 is_stmt 1 view .LVU433
 1719 0178 4368     		ldr	r3, [r0, #4]
 1720              		.loc 1 800 69 is_stmt 0 view .LVU434
 1721 017a 1189     		ldrh	r1, [r2, #8]
 1722              		.loc 1 800 38 view .LVU435
 1723 017c 43EA0113 		orr	r3, r3, r1, lsl #4
 1724 0180 4360     		str	r3, [r0, #4]
 801:../../../GD32F4xx_Firmware_Library/GD32F4xx_standard_peripheral/Source/gd32f4xx_timer.c ****             /* reset the ISO2N bit */
 802:../../../GD32F4xx_Firmware_Library/GD32F4xx_standard_peripheral/Source/gd32f4xx_timer.c ****             TIMER_CTL1(timer_periph) &= (~(uint32_t)TIMER_CTL1_ISO2N);
 1725              		.loc 1 802 13 is_stmt 1 view .LVU436
 1726 0182 4368     		ldr	r3, [r0, #4]
 1727              		.loc 1 802 38 is_stmt 0 view .LVU437
 1728 0184 23F40053 		bic	r3, r3, #8192
 1729 0188 4360     		str	r3, [r0, #4]
 803:../../../GD32F4xx_Firmware_Library/GD32F4xx_standard_peripheral/Source/gd32f4xx_timer.c ****             /* set the ISO2N bit */
 804:../../../GD32F4xx_Firmware_Library/GD32F4xx_standard_peripheral/Source/gd32f4xx_timer.c ****             TIMER_CTL1(timer_periph) |= (uint32_t)((uint32_t)(ocpara->ocnidlestate) << 4U);
 1730              		.loc 1 804 13 is_stmt 1 view .LVU438
 1731 018a 4368     		ldr	r3, [r0, #4]
 1732              		.loc 1 804 69 is_stmt 0 view .LVU439
 1733 018c 5289     		ldrh	r2, [r2, #10]
 1734              	.LVL102:
 1735              		.loc 1 804 38 view .LVU440
 1736 018e 43EA0213 		orr	r3, r3, r2, lsl #4
 1737 0192 4360     		str	r3, [r0, #4]
 1738 0194 7047     		bx	lr
 1739              	.LVL103:
 1740              	.L91:
 805:../../../GD32F4xx_Firmware_Library/GD32F4xx_standard_peripheral/Source/gd32f4xx_timer.c ****         }
 806:../../../GD32F4xx_Firmware_Library/GD32F4xx_standard_peripheral/Source/gd32f4xx_timer.c ****         break;
 807:../../../GD32F4xx_Firmware_Library/GD32F4xx_standard_peripheral/Source/gd32f4xx_timer.c ****     /* configure TIMER_CH_3 */
 808:../../../GD32F4xx_Firmware_Library/GD32F4xx_standard_peripheral/Source/gd32f4xx_timer.c ****     case TIMER_CH_3:
 809:../../../GD32F4xx_Firmware_Library/GD32F4xx_standard_peripheral/Source/gd32f4xx_timer.c ****         /* reset the CH3EN bit */
 810:../../../GD32F4xx_Firmware_Library/GD32F4xx_standard_peripheral/Source/gd32f4xx_timer.c ****         TIMER_CHCTL2(timer_periph) &= (~(uint32_t)TIMER_CHCTL2_CH3EN);
 1741              		.loc 1 810 9 is_stmt 1 view .LVU441
 1742 0196 036A     		ldr	r3, [r0, #32]
 1743              		.loc 1 810 36 is_stmt 0 view .LVU442
 1744 0198 23F48053 		bic	r3, r3, #4096
 1745 019c 0362     		str	r3, [r0, #32]
 811:../../../GD32F4xx_Firmware_Library/GD32F4xx_standard_peripheral/Source/gd32f4xx_timer.c ****         TIMER_CHCTL1(timer_periph) &= ~(uint32_t)TIMER_CHCTL1_CH3MS;
 1746              		.loc 1 811 9 is_stmt 1 view .LVU443
 1747 019e C369     		ldr	r3, [r0, #28]
 1748              		.loc 1 811 36 is_stmt 0 view .LVU444
 1749 01a0 23F44073 		bic	r3, r3, #768
ARM GAS  /var/folders/h5/b3x4g50d3yx3hd9mlg8mn_600000gn/T//cc8A1z0P.s 			page 46


 1750 01a4 C361     		str	r3, [r0, #28]
 812:../../../GD32F4xx_Firmware_Library/GD32F4xx_standard_peripheral/Source/gd32f4xx_timer.c ****         /* set the CH3EN bit */
 813:../../../GD32F4xx_Firmware_Library/GD32F4xx_standard_peripheral/Source/gd32f4xx_timer.c ****         TIMER_CHCTL2(timer_periph) |= (uint32_t)((uint32_t)ocpara->outputstate << 12U);
 1751              		.loc 1 813 9 is_stmt 1 view .LVU445
 1752 01a6 036A     		ldr	r3, [r0, #32]
 1753              		.loc 1 813 66 is_stmt 0 view .LVU446
 1754 01a8 1188     		ldrh	r1, [r2]
 1755              	.LVL104:
 1756              		.loc 1 813 36 view .LVU447
 1757 01aa 43EA0133 		orr	r3, r3, r1, lsl #12
 1758 01ae 0362     		str	r3, [r0, #32]
 814:../../../GD32F4xx_Firmware_Library/GD32F4xx_standard_peripheral/Source/gd32f4xx_timer.c ****         /* reset the CH3P bit */
 815:../../../GD32F4xx_Firmware_Library/GD32F4xx_standard_peripheral/Source/gd32f4xx_timer.c ****         TIMER_CHCTL2(timer_periph) &= (~(uint32_t)TIMER_CHCTL2_CH3P);
 1759              		.loc 1 815 9 is_stmt 1 view .LVU448
 1760 01b0 036A     		ldr	r3, [r0, #32]
 1761              		.loc 1 815 36 is_stmt 0 view .LVU449
 1762 01b2 23F40053 		bic	r3, r3, #8192
 1763 01b6 0362     		str	r3, [r0, #32]
 816:../../../GD32F4xx_Firmware_Library/GD32F4xx_standard_peripheral/Source/gd32f4xx_timer.c ****         /* set the CH3P bit */
 817:../../../GD32F4xx_Firmware_Library/GD32F4xx_standard_peripheral/Source/gd32f4xx_timer.c ****         TIMER_CHCTL2(timer_periph) |= (uint32_t)((uint32_t)(ocpara->ocpolarity) << 12U);
 1764              		.loc 1 817 9 is_stmt 1 view .LVU450
 1765 01b8 036A     		ldr	r3, [r0, #32]
 1766              		.loc 1 817 67 is_stmt 0 view .LVU451
 1767 01ba 9188     		ldrh	r1, [r2, #4]
 1768              		.loc 1 817 36 view .LVU452
 1769 01bc 43EA0133 		orr	r3, r3, r1, lsl #12
 1770 01c0 0362     		str	r3, [r0, #32]
 818:../../../GD32F4xx_Firmware_Library/GD32F4xx_standard_peripheral/Source/gd32f4xx_timer.c **** 
 819:../../../GD32F4xx_Firmware_Library/GD32F4xx_standard_peripheral/Source/gd32f4xx_timer.c ****         if((TIMER0 == timer_periph) || (TIMER7 == timer_periph)) {
 1771              		.loc 1 819 9 is_stmt 1 view .LVU453
 1772              		.loc 1 819 11 is_stmt 0 view .LVU454
 1773 01c2 084B     		ldr	r3, .L101
 1774 01c4 9842     		cmp	r0, r3
 1775 01c6 03D0     		beq	.L99
 1776              		.loc 1 819 37 discriminator 1 view .LVU455
 1777 01c8 03F58063 		add	r3, r3, #1024
 1778 01cc 9842     		cmp	r0, r3
 1779 01ce 08D1     		bne	.L89
 1780              	.L99:
 820:../../../GD32F4xx_Firmware_Library/GD32F4xx_standard_peripheral/Source/gd32f4xx_timer.c ****             /* reset the ISO3 bit */
 821:../../../GD32F4xx_Firmware_Library/GD32F4xx_standard_peripheral/Source/gd32f4xx_timer.c ****             TIMER_CTL1(timer_periph) &= (~(uint32_t)TIMER_CTL1_ISO3);
 1781              		.loc 1 821 13 is_stmt 1 view .LVU456
 1782 01d0 4368     		ldr	r3, [r0, #4]
 1783              		.loc 1 821 38 is_stmt 0 view .LVU457
 1784 01d2 23F48043 		bic	r3, r3, #16384
 1785 01d6 4360     		str	r3, [r0, #4]
 822:../../../GD32F4xx_Firmware_Library/GD32F4xx_standard_peripheral/Source/gd32f4xx_timer.c ****             /* set the ISO3 bit */
 823:../../../GD32F4xx_Firmware_Library/GD32F4xx_standard_peripheral/Source/gd32f4xx_timer.c ****             TIMER_CTL1(timer_periph) |= (uint32_t)((uint32_t)(ocpara->ocidlestate) << 6U);
 1786              		.loc 1 823 13 is_stmt 1 view .LVU458
 1787 01d8 4368     		ldr	r3, [r0, #4]
 1788              		.loc 1 823 69 is_stmt 0 view .LVU459
 1789 01da 1289     		ldrh	r2, [r2, #8]
 1790              	.LVL105:
 1791              		.loc 1 823 38 view .LVU460
 1792 01dc 43EA8213 		orr	r3, r3, r2, lsl #6
 1793 01e0 4360     		str	r3, [r0, #4]
 1794              	.L89:
ARM GAS  /var/folders/h5/b3x4g50d3yx3hd9mlg8mn_600000gn/T//cc8A1z0P.s 			page 47


 824:../../../GD32F4xx_Firmware_Library/GD32F4xx_standard_peripheral/Source/gd32f4xx_timer.c ****         }
 825:../../../GD32F4xx_Firmware_Library/GD32F4xx_standard_peripheral/Source/gd32f4xx_timer.c ****         break;
 826:../../../GD32F4xx_Firmware_Library/GD32F4xx_standard_peripheral/Source/gd32f4xx_timer.c ****     default:
 827:../../../GD32F4xx_Firmware_Library/GD32F4xx_standard_peripheral/Source/gd32f4xx_timer.c ****         break;
 828:../../../GD32F4xx_Firmware_Library/GD32F4xx_standard_peripheral/Source/gd32f4xx_timer.c ****     }
 829:../../../GD32F4xx_Firmware_Library/GD32F4xx_standard_peripheral/Source/gd32f4xx_timer.c **** }
 1795              		.loc 1 829 1 view .LVU461
 1796 01e2 7047     		bx	lr
 1797              	.L102:
 1798              		.align	2
 1799              	.L101:
 1800 01e4 00000140 		.word	1073807360
 1801              		.cfi_endproc
 1802              	.LFE151:
 1804              		.section	.text.timer_channel_output_mode_config,"ax",%progbits
 1805              		.align	1
 1806              		.global	timer_channel_output_mode_config
 1807              		.syntax unified
 1808              		.thumb
 1809              		.thumb_func
 1811              	timer_channel_output_mode_config:
 1812              	.LVL106:
 1813              	.LFB152:
 830:../../../GD32F4xx_Firmware_Library/GD32F4xx_standard_peripheral/Source/gd32f4xx_timer.c **** 
 831:../../../GD32F4xx_Firmware_Library/GD32F4xx_standard_peripheral/Source/gd32f4xx_timer.c **** /*!
 832:../../../GD32F4xx_Firmware_Library/GD32F4xx_standard_peripheral/Source/gd32f4xx_timer.c ****     \brief      configure TIMER channel output compare mode
 833:../../../GD32F4xx_Firmware_Library/GD32F4xx_standard_peripheral/Source/gd32f4xx_timer.c ****     \param[in]  timer_periph: please refer to the following parameters
 834:../../../GD32F4xx_Firmware_Library/GD32F4xx_standard_peripheral/Source/gd32f4xx_timer.c ****     \param[in]  channel:
 835:../../../GD32F4xx_Firmware_Library/GD32F4xx_standard_peripheral/Source/gd32f4xx_timer.c ****                 only one parameter can be selected which is shown as below:
 836:../../../GD32F4xx_Firmware_Library/GD32F4xx_standard_peripheral/Source/gd32f4xx_timer.c ****       \arg        TIMER_CH_0: TIMER channel0(TIMERx(x=0..4,7..13))
 837:../../../GD32F4xx_Firmware_Library/GD32F4xx_standard_peripheral/Source/gd32f4xx_timer.c ****       \arg        TIMER_CH_1: TIMER channel1(TIMERx(x=0..4,7,8,11))
 838:../../../GD32F4xx_Firmware_Library/GD32F4xx_standard_peripheral/Source/gd32f4xx_timer.c ****       \arg        TIMER_CH_2: TIMER channel2(TIMERx(x=0..4,7))
 839:../../../GD32F4xx_Firmware_Library/GD32F4xx_standard_peripheral/Source/gd32f4xx_timer.c ****       \arg        TIMER_CH_3: TIMER channel3(TIMERx(x=0..4,7))
 840:../../../GD32F4xx_Firmware_Library/GD32F4xx_standard_peripheral/Source/gd32f4xx_timer.c ****     \param[in]  ocmode: channel output compare mode
 841:../../../GD32F4xx_Firmware_Library/GD32F4xx_standard_peripheral/Source/gd32f4xx_timer.c ****                 only one parameter can be selected which is shown as below:
 842:../../../GD32F4xx_Firmware_Library/GD32F4xx_standard_peripheral/Source/gd32f4xx_timer.c ****       \arg        TIMER_OC_MODE_TIMING: timing mode
 843:../../../GD32F4xx_Firmware_Library/GD32F4xx_standard_peripheral/Source/gd32f4xx_timer.c ****       \arg        TIMER_OC_MODE_ACTIVE: active mode
 844:../../../GD32F4xx_Firmware_Library/GD32F4xx_standard_peripheral/Source/gd32f4xx_timer.c ****       \arg        TIMER_OC_MODE_INACTIVE: inactive mode
 845:../../../GD32F4xx_Firmware_Library/GD32F4xx_standard_peripheral/Source/gd32f4xx_timer.c ****       \arg        TIMER_OC_MODE_TOGGLE: toggle mode
 846:../../../GD32F4xx_Firmware_Library/GD32F4xx_standard_peripheral/Source/gd32f4xx_timer.c ****       \arg        TIMER_OC_MODE_LOW: force low mode
 847:../../../GD32F4xx_Firmware_Library/GD32F4xx_standard_peripheral/Source/gd32f4xx_timer.c ****       \arg        TIMER_OC_MODE_HIGH: force high mode
 848:../../../GD32F4xx_Firmware_Library/GD32F4xx_standard_peripheral/Source/gd32f4xx_timer.c ****       \arg        TIMER_OC_MODE_PWM0: PWM0 mode
 849:../../../GD32F4xx_Firmware_Library/GD32F4xx_standard_peripheral/Source/gd32f4xx_timer.c ****       \arg        TIMER_OC_MODE_PWM1: PWM1 mode
 850:../../../GD32F4xx_Firmware_Library/GD32F4xx_standard_peripheral/Source/gd32f4xx_timer.c ****     \param[out] none
 851:../../../GD32F4xx_Firmware_Library/GD32F4xx_standard_peripheral/Source/gd32f4xx_timer.c ****     \retval     none
 852:../../../GD32F4xx_Firmware_Library/GD32F4xx_standard_peripheral/Source/gd32f4xx_timer.c **** */
 853:../../../GD32F4xx_Firmware_Library/GD32F4xx_standard_peripheral/Source/gd32f4xx_timer.c **** void timer_channel_output_mode_config(uint32_t timer_periph, uint16_t channel, uint16_t ocmode)
 854:../../../GD32F4xx_Firmware_Library/GD32F4xx_standard_peripheral/Source/gd32f4xx_timer.c **** {
 1814              		.loc 1 854 1 is_stmt 1 view -0
 1815              		.cfi_startproc
 1816              		@ args = 0, pretend = 0, frame = 0
 1817              		@ frame_needed = 0, uses_anonymous_args = 0
 1818              		@ link register save eliminated.
 855:../../../GD32F4xx_Firmware_Library/GD32F4xx_standard_peripheral/Source/gd32f4xx_timer.c ****     switch(channel) {
 1819              		.loc 1 855 5 view .LVU463
 1820 0000 0329     		cmp	r1, #3
 1821 0002 24D8     		bhi	.L103
ARM GAS  /var/folders/h5/b3x4g50d3yx3hd9mlg8mn_600000gn/T//cc8A1z0P.s 			page 48


 1822 0004 DFE801F0 		tbb	[pc, r1]
 1823              	.L106:
 1824 0008 02       		.byte	(.L109-.L106)/2
 1825 0009 0A       		.byte	(.L108-.L106)/2
 1826 000a 13       		.byte	(.L107-.L106)/2
 1827 000b 1B       		.byte	(.L105-.L106)/2
 1828              		.p2align 1
 1829              	.L109:
 856:../../../GD32F4xx_Firmware_Library/GD32F4xx_standard_peripheral/Source/gd32f4xx_timer.c ****     /* configure TIMER_CH_0 */
 857:../../../GD32F4xx_Firmware_Library/GD32F4xx_standard_peripheral/Source/gd32f4xx_timer.c ****     case TIMER_CH_0:
 858:../../../GD32F4xx_Firmware_Library/GD32F4xx_standard_peripheral/Source/gd32f4xx_timer.c ****         TIMER_CHCTL0(timer_periph) &= (~(uint32_t)TIMER_CHCTL0_CH0COMCTL);
 1830              		.loc 1 858 9 view .LVU464
 1831 000c 8369     		ldr	r3, [r0, #24]
 1832              		.loc 1 858 36 is_stmt 0 view .LVU465
 1833 000e 23F07003 		bic	r3, r3, #112
 1834 0012 8361     		str	r3, [r0, #24]
 859:../../../GD32F4xx_Firmware_Library/GD32F4xx_standard_peripheral/Source/gd32f4xx_timer.c ****         TIMER_CHCTL0(timer_periph) |= (uint32_t)ocmode;
 1835              		.loc 1 859 9 is_stmt 1 view .LVU466
 1836 0014 8369     		ldr	r3, [r0, #24]
 1837              		.loc 1 859 36 is_stmt 0 view .LVU467
 1838 0016 1343     		orrs	r3, r3, r2
 1839 0018 8361     		str	r3, [r0, #24]
 860:../../../GD32F4xx_Firmware_Library/GD32F4xx_standard_peripheral/Source/gd32f4xx_timer.c ****         break;
 1840              		.loc 1 860 9 is_stmt 1 view .LVU468
 1841 001a 7047     		bx	lr
 1842              	.L108:
 861:../../../GD32F4xx_Firmware_Library/GD32F4xx_standard_peripheral/Source/gd32f4xx_timer.c ****     /* configure TIMER_CH_1 */
 862:../../../GD32F4xx_Firmware_Library/GD32F4xx_standard_peripheral/Source/gd32f4xx_timer.c ****     case TIMER_CH_1:
 863:../../../GD32F4xx_Firmware_Library/GD32F4xx_standard_peripheral/Source/gd32f4xx_timer.c ****         TIMER_CHCTL0(timer_periph) &= (~(uint32_t)TIMER_CHCTL0_CH1COMCTL);
 1843              		.loc 1 863 9 view .LVU469
 1844 001c 8369     		ldr	r3, [r0, #24]
 1845              		.loc 1 863 36 is_stmt 0 view .LVU470
 1846 001e 23F4E043 		bic	r3, r3, #28672
 1847 0022 8361     		str	r3, [r0, #24]
 864:../../../GD32F4xx_Firmware_Library/GD32F4xx_standard_peripheral/Source/gd32f4xx_timer.c ****         TIMER_CHCTL0(timer_periph) |= (uint32_t)((uint32_t)(ocmode) << 8U);
 1848              		.loc 1 864 9 is_stmt 1 view .LVU471
 1849 0024 8369     		ldr	r3, [r0, #24]
 1850              		.loc 1 864 36 is_stmt 0 view .LVU472
 1851 0026 43EA0223 		orr	r3, r3, r2, lsl #8
 1852 002a 8361     		str	r3, [r0, #24]
 865:../../../GD32F4xx_Firmware_Library/GD32F4xx_standard_peripheral/Source/gd32f4xx_timer.c ****         break;
 1853              		.loc 1 865 9 is_stmt 1 view .LVU473
 1854 002c 7047     		bx	lr
 1855              	.L107:
 866:../../../GD32F4xx_Firmware_Library/GD32F4xx_standard_peripheral/Source/gd32f4xx_timer.c ****     /* configure TIMER_CH_2 */
 867:../../../GD32F4xx_Firmware_Library/GD32F4xx_standard_peripheral/Source/gd32f4xx_timer.c ****     case TIMER_CH_2:
 868:../../../GD32F4xx_Firmware_Library/GD32F4xx_standard_peripheral/Source/gd32f4xx_timer.c ****         TIMER_CHCTL1(timer_periph) &= (~(uint32_t)TIMER_CHCTL1_CH2COMCTL);
 1856              		.loc 1 868 9 view .LVU474
 1857 002e C369     		ldr	r3, [r0, #28]
 1858              		.loc 1 868 36 is_stmt 0 view .LVU475
 1859 0030 23F07003 		bic	r3, r3, #112
 1860 0034 C361     		str	r3, [r0, #28]
 869:../../../GD32F4xx_Firmware_Library/GD32F4xx_standard_peripheral/Source/gd32f4xx_timer.c ****         TIMER_CHCTL1(timer_periph) |= (uint32_t)ocmode;
 1861              		.loc 1 869 9 is_stmt 1 view .LVU476
 1862 0036 C369     		ldr	r3, [r0, #28]
 1863              		.loc 1 869 36 is_stmt 0 view .LVU477
 1864 0038 1343     		orrs	r3, r3, r2
ARM GAS  /var/folders/h5/b3x4g50d3yx3hd9mlg8mn_600000gn/T//cc8A1z0P.s 			page 49


 1865 003a C361     		str	r3, [r0, #28]
 870:../../../GD32F4xx_Firmware_Library/GD32F4xx_standard_peripheral/Source/gd32f4xx_timer.c ****         break;
 1866              		.loc 1 870 9 is_stmt 1 view .LVU478
 1867 003c 7047     		bx	lr
 1868              	.L105:
 871:../../../GD32F4xx_Firmware_Library/GD32F4xx_standard_peripheral/Source/gd32f4xx_timer.c ****     /* configure TIMER_CH_3 */
 872:../../../GD32F4xx_Firmware_Library/GD32F4xx_standard_peripheral/Source/gd32f4xx_timer.c ****     case TIMER_CH_3:
 873:../../../GD32F4xx_Firmware_Library/GD32F4xx_standard_peripheral/Source/gd32f4xx_timer.c ****         TIMER_CHCTL1(timer_periph) &= (~(uint32_t)TIMER_CHCTL1_CH3COMCTL);
 1869              		.loc 1 873 9 view .LVU479
 1870 003e C369     		ldr	r3, [r0, #28]
 1871              		.loc 1 873 36 is_stmt 0 view .LVU480
 1872 0040 23F4E043 		bic	r3, r3, #28672
 1873 0044 C361     		str	r3, [r0, #28]
 874:../../../GD32F4xx_Firmware_Library/GD32F4xx_standard_peripheral/Source/gd32f4xx_timer.c ****         TIMER_CHCTL1(timer_periph) |= (uint32_t)((uint32_t)(ocmode) << 8U);
 1874              		.loc 1 874 9 is_stmt 1 view .LVU481
 1875 0046 C369     		ldr	r3, [r0, #28]
 1876              		.loc 1 874 36 is_stmt 0 view .LVU482
 1877 0048 43EA0223 		orr	r3, r3, r2, lsl #8
 1878 004c C361     		str	r3, [r0, #28]
 875:../../../GD32F4xx_Firmware_Library/GD32F4xx_standard_peripheral/Source/gd32f4xx_timer.c ****         break;
 1879              		.loc 1 875 9 is_stmt 1 view .LVU483
 1880              	.L103:
 876:../../../GD32F4xx_Firmware_Library/GD32F4xx_standard_peripheral/Source/gd32f4xx_timer.c ****     default:
 877:../../../GD32F4xx_Firmware_Library/GD32F4xx_standard_peripheral/Source/gd32f4xx_timer.c ****         break;
 878:../../../GD32F4xx_Firmware_Library/GD32F4xx_standard_peripheral/Source/gd32f4xx_timer.c ****     }
 879:../../../GD32F4xx_Firmware_Library/GD32F4xx_standard_peripheral/Source/gd32f4xx_timer.c **** }
 1881              		.loc 1 879 1 is_stmt 0 view .LVU484
 1882 004e 7047     		bx	lr
 1883              		.cfi_endproc
 1884              	.LFE152:
 1886              		.section	.text.timer_channel_output_pulse_value_config,"ax",%progbits
 1887              		.align	1
 1888              		.global	timer_channel_output_pulse_value_config
 1889              		.syntax unified
 1890              		.thumb
 1891              		.thumb_func
 1893              	timer_channel_output_pulse_value_config:
 1894              	.LVL107:
 1895              	.LFB153:
 880:../../../GD32F4xx_Firmware_Library/GD32F4xx_standard_peripheral/Source/gd32f4xx_timer.c **** 
 881:../../../GD32F4xx_Firmware_Library/GD32F4xx_standard_peripheral/Source/gd32f4xx_timer.c **** /*!
 882:../../../GD32F4xx_Firmware_Library/GD32F4xx_standard_peripheral/Source/gd32f4xx_timer.c ****     \brief      configure TIMER channel output pulse value
 883:../../../GD32F4xx_Firmware_Library/GD32F4xx_standard_peripheral/Source/gd32f4xx_timer.c ****     \param[in]  timer_periph: please refer to the following parameters
 884:../../../GD32F4xx_Firmware_Library/GD32F4xx_standard_peripheral/Source/gd32f4xx_timer.c ****     \param[in]  channel:
 885:../../../GD32F4xx_Firmware_Library/GD32F4xx_standard_peripheral/Source/gd32f4xx_timer.c ****                 only one parameter can be selected which is shown as below:
 886:../../../GD32F4xx_Firmware_Library/GD32F4xx_standard_peripheral/Source/gd32f4xx_timer.c ****       \arg        TIMER_CH_0: TIMER channel0(TIMERx(x=0..4,7..13))
 887:../../../GD32F4xx_Firmware_Library/GD32F4xx_standard_peripheral/Source/gd32f4xx_timer.c ****       \arg        TIMER_CH_1: TIMER channel1(TIMERx(x=0..4,7,8,11))
 888:../../../GD32F4xx_Firmware_Library/GD32F4xx_standard_peripheral/Source/gd32f4xx_timer.c ****       \arg        TIMER_CH_2: TIMER channel2(TIMERx(x=0..4,7))
 889:../../../GD32F4xx_Firmware_Library/GD32F4xx_standard_peripheral/Source/gd32f4xx_timer.c ****       \arg        TIMER_CH_3: TIMER channel3(TIMERx(x=0..4,7))
 890:../../../GD32F4xx_Firmware_Library/GD32F4xx_standard_peripheral/Source/gd32f4xx_timer.c ****     \param[in]  pulse: channel output pulse value,0~65535
 891:../../../GD32F4xx_Firmware_Library/GD32F4xx_standard_peripheral/Source/gd32f4xx_timer.c ****     \param[out] none
 892:../../../GD32F4xx_Firmware_Library/GD32F4xx_standard_peripheral/Source/gd32f4xx_timer.c ****     \retval     none
 893:../../../GD32F4xx_Firmware_Library/GD32F4xx_standard_peripheral/Source/gd32f4xx_timer.c **** */
 894:../../../GD32F4xx_Firmware_Library/GD32F4xx_standard_peripheral/Source/gd32f4xx_timer.c **** void timer_channel_output_pulse_value_config(uint32_t timer_periph, uint16_t channel, uint32_t puls
 895:../../../GD32F4xx_Firmware_Library/GD32F4xx_standard_peripheral/Source/gd32f4xx_timer.c **** {
 1896              		.loc 1 895 1 is_stmt 1 view -0
 1897              		.cfi_startproc
ARM GAS  /var/folders/h5/b3x4g50d3yx3hd9mlg8mn_600000gn/T//cc8A1z0P.s 			page 50


 1898              		@ args = 0, pretend = 0, frame = 0
 1899              		@ frame_needed = 0, uses_anonymous_args = 0
 1900              		@ link register save eliminated.
 896:../../../GD32F4xx_Firmware_Library/GD32F4xx_standard_peripheral/Source/gd32f4xx_timer.c ****     switch(channel) {
 1901              		.loc 1 896 5 view .LVU486
 1902 0000 0329     		cmp	r1, #3
 1903 0002 0AD8     		bhi	.L111
 1904 0004 DFE801F0 		tbb	[pc, r1]
 1905              	.L114:
 1906 0008 02       		.byte	(.L117-.L114)/2
 1907 0009 04       		.byte	(.L116-.L114)/2
 1908 000a 06       		.byte	(.L115-.L114)/2
 1909 000b 08       		.byte	(.L113-.L114)/2
 1910              		.p2align 1
 1911              	.L117:
 897:../../../GD32F4xx_Firmware_Library/GD32F4xx_standard_peripheral/Source/gd32f4xx_timer.c ****     /* configure TIMER_CH_0 */
 898:../../../GD32F4xx_Firmware_Library/GD32F4xx_standard_peripheral/Source/gd32f4xx_timer.c ****     case TIMER_CH_0:
 899:../../../GD32F4xx_Firmware_Library/GD32F4xx_standard_peripheral/Source/gd32f4xx_timer.c ****         TIMER_CH0CV(timer_periph) = (uint32_t)pulse;
 1912              		.loc 1 899 9 view .LVU487
 1913              		.loc 1 899 35 is_stmt 0 view .LVU488
 1914 000c 4263     		str	r2, [r0, #52]
 900:../../../GD32F4xx_Firmware_Library/GD32F4xx_standard_peripheral/Source/gd32f4xx_timer.c ****         break;
 1915              		.loc 1 900 9 is_stmt 1 view .LVU489
 1916 000e 7047     		bx	lr
 1917              	.L116:
 901:../../../GD32F4xx_Firmware_Library/GD32F4xx_standard_peripheral/Source/gd32f4xx_timer.c ****     /* configure TIMER_CH_1 */
 902:../../../GD32F4xx_Firmware_Library/GD32F4xx_standard_peripheral/Source/gd32f4xx_timer.c ****     case TIMER_CH_1:
 903:../../../GD32F4xx_Firmware_Library/GD32F4xx_standard_peripheral/Source/gd32f4xx_timer.c ****         TIMER_CH1CV(timer_periph) = (uint32_t)pulse;
 1918              		.loc 1 903 9 view .LVU490
 1919              		.loc 1 903 35 is_stmt 0 view .LVU491
 1920 0010 8263     		str	r2, [r0, #56]
 904:../../../GD32F4xx_Firmware_Library/GD32F4xx_standard_peripheral/Source/gd32f4xx_timer.c ****         break;
 1921              		.loc 1 904 9 is_stmt 1 view .LVU492
 1922 0012 7047     		bx	lr
 1923              	.L115:
 905:../../../GD32F4xx_Firmware_Library/GD32F4xx_standard_peripheral/Source/gd32f4xx_timer.c ****     /* configure TIMER_CH_2 */
 906:../../../GD32F4xx_Firmware_Library/GD32F4xx_standard_peripheral/Source/gd32f4xx_timer.c ****     case TIMER_CH_2:
 907:../../../GD32F4xx_Firmware_Library/GD32F4xx_standard_peripheral/Source/gd32f4xx_timer.c ****         TIMER_CH2CV(timer_periph) = (uint32_t)pulse;
 1924              		.loc 1 907 9 view .LVU493
 1925              		.loc 1 907 35 is_stmt 0 view .LVU494
 1926 0014 C263     		str	r2, [r0, #60]
 908:../../../GD32F4xx_Firmware_Library/GD32F4xx_standard_peripheral/Source/gd32f4xx_timer.c ****         break;
 1927              		.loc 1 908 9 is_stmt 1 view .LVU495
 1928 0016 7047     		bx	lr
 1929              	.L113:
 909:../../../GD32F4xx_Firmware_Library/GD32F4xx_standard_peripheral/Source/gd32f4xx_timer.c ****     /* configure TIMER_CH_3 */
 910:../../../GD32F4xx_Firmware_Library/GD32F4xx_standard_peripheral/Source/gd32f4xx_timer.c ****     case TIMER_CH_3:
 911:../../../GD32F4xx_Firmware_Library/GD32F4xx_standard_peripheral/Source/gd32f4xx_timer.c ****         TIMER_CH3CV(timer_periph) = (uint32_t)pulse;
 1930              		.loc 1 911 9 view .LVU496
 1931              		.loc 1 911 35 is_stmt 0 view .LVU497
 1932 0018 0264     		str	r2, [r0, #64]
 912:../../../GD32F4xx_Firmware_Library/GD32F4xx_standard_peripheral/Source/gd32f4xx_timer.c ****         break;
 1933              		.loc 1 912 9 is_stmt 1 view .LVU498
 1934              	.L111:
 913:../../../GD32F4xx_Firmware_Library/GD32F4xx_standard_peripheral/Source/gd32f4xx_timer.c ****     default:
 914:../../../GD32F4xx_Firmware_Library/GD32F4xx_standard_peripheral/Source/gd32f4xx_timer.c ****         break;
 915:../../../GD32F4xx_Firmware_Library/GD32F4xx_standard_peripheral/Source/gd32f4xx_timer.c ****     }
ARM GAS  /var/folders/h5/b3x4g50d3yx3hd9mlg8mn_600000gn/T//cc8A1z0P.s 			page 51


 916:../../../GD32F4xx_Firmware_Library/GD32F4xx_standard_peripheral/Source/gd32f4xx_timer.c **** }
 1935              		.loc 1 916 1 is_stmt 0 view .LVU499
 1936 001a 7047     		bx	lr
 1937              		.cfi_endproc
 1938              	.LFE153:
 1940              		.section	.text.timer_channel_output_shadow_config,"ax",%progbits
 1941              		.align	1
 1942              		.global	timer_channel_output_shadow_config
 1943              		.syntax unified
 1944              		.thumb
 1945              		.thumb_func
 1947              	timer_channel_output_shadow_config:
 1948              	.LVL108:
 1949              	.LFB154:
 917:../../../GD32F4xx_Firmware_Library/GD32F4xx_standard_peripheral/Source/gd32f4xx_timer.c **** 
 918:../../../GD32F4xx_Firmware_Library/GD32F4xx_standard_peripheral/Source/gd32f4xx_timer.c **** /*!
 919:../../../GD32F4xx_Firmware_Library/GD32F4xx_standard_peripheral/Source/gd32f4xx_timer.c ****     \brief      configure TIMER channel output shadow function
 920:../../../GD32F4xx_Firmware_Library/GD32F4xx_standard_peripheral/Source/gd32f4xx_timer.c ****     \param[in]  timer_periph: please refer to the following parameters
 921:../../../GD32F4xx_Firmware_Library/GD32F4xx_standard_peripheral/Source/gd32f4xx_timer.c ****     \param[in]  channel:
 922:../../../GD32F4xx_Firmware_Library/GD32F4xx_standard_peripheral/Source/gd32f4xx_timer.c ****                 only one parameter can be selected which is shown as below:
 923:../../../GD32F4xx_Firmware_Library/GD32F4xx_standard_peripheral/Source/gd32f4xx_timer.c ****       \arg        TIMER_CH_0: TIMER channel0(TIMERx(x=0..4,7..13))
 924:../../../GD32F4xx_Firmware_Library/GD32F4xx_standard_peripheral/Source/gd32f4xx_timer.c ****       \arg        TIMER_CH_1: TIMER channel1(TIMERx(x=0..4,7,8,11))
 925:../../../GD32F4xx_Firmware_Library/GD32F4xx_standard_peripheral/Source/gd32f4xx_timer.c ****       \arg        TIMER_CH_2: TIMER channel2(TIMERx(x=0..4,7))
 926:../../../GD32F4xx_Firmware_Library/GD32F4xx_standard_peripheral/Source/gd32f4xx_timer.c ****       \arg        TIMER_CH_3: TIMER channel3(TIMERx(x=0..4,7))
 927:../../../GD32F4xx_Firmware_Library/GD32F4xx_standard_peripheral/Source/gd32f4xx_timer.c ****     \param[in]  ocshadow: channel output shadow state
 928:../../../GD32F4xx_Firmware_Library/GD32F4xx_standard_peripheral/Source/gd32f4xx_timer.c ****                 only one parameter can be selected which is shown as below:
 929:../../../GD32F4xx_Firmware_Library/GD32F4xx_standard_peripheral/Source/gd32f4xx_timer.c ****       \arg        TIMER_OC_SHADOW_ENABLE: channel output shadow state enable
 930:../../../GD32F4xx_Firmware_Library/GD32F4xx_standard_peripheral/Source/gd32f4xx_timer.c ****       \arg        TIMER_OC_SHADOW_DISABLE: channel output shadow state disable
 931:../../../GD32F4xx_Firmware_Library/GD32F4xx_standard_peripheral/Source/gd32f4xx_timer.c ****     \param[out] none
 932:../../../GD32F4xx_Firmware_Library/GD32F4xx_standard_peripheral/Source/gd32f4xx_timer.c ****     \retval     none
 933:../../../GD32F4xx_Firmware_Library/GD32F4xx_standard_peripheral/Source/gd32f4xx_timer.c **** */
 934:../../../GD32F4xx_Firmware_Library/GD32F4xx_standard_peripheral/Source/gd32f4xx_timer.c **** void timer_channel_output_shadow_config(uint32_t timer_periph, uint16_t channel, uint16_t ocshadow)
 935:../../../GD32F4xx_Firmware_Library/GD32F4xx_standard_peripheral/Source/gd32f4xx_timer.c **** {
 1950              		.loc 1 935 1 is_stmt 1 view -0
 1951              		.cfi_startproc
 1952              		@ args = 0, pretend = 0, frame = 0
 1953              		@ frame_needed = 0, uses_anonymous_args = 0
 1954              		@ link register save eliminated.
 936:../../../GD32F4xx_Firmware_Library/GD32F4xx_standard_peripheral/Source/gd32f4xx_timer.c ****     switch(channel) {
 1955              		.loc 1 936 5 view .LVU501
 1956 0000 0329     		cmp	r1, #3
 1957 0002 24D8     		bhi	.L119
 1958 0004 DFE801F0 		tbb	[pc, r1]
 1959              	.L122:
 1960 0008 02       		.byte	(.L125-.L122)/2
 1961 0009 0A       		.byte	(.L124-.L122)/2
 1962 000a 13       		.byte	(.L123-.L122)/2
 1963 000b 1B       		.byte	(.L121-.L122)/2
 1964              		.p2align 1
 1965              	.L125:
 937:../../../GD32F4xx_Firmware_Library/GD32F4xx_standard_peripheral/Source/gd32f4xx_timer.c ****     /* configure TIMER_CH_0 */
 938:../../../GD32F4xx_Firmware_Library/GD32F4xx_standard_peripheral/Source/gd32f4xx_timer.c ****     case TIMER_CH_0:
 939:../../../GD32F4xx_Firmware_Library/GD32F4xx_standard_peripheral/Source/gd32f4xx_timer.c ****         TIMER_CHCTL0(timer_periph) &= (~(uint32_t)TIMER_CHCTL0_CH0COMSEN);
 1966              		.loc 1 939 9 view .LVU502
 1967 000c 8369     		ldr	r3, [r0, #24]
 1968              		.loc 1 939 36 is_stmt 0 view .LVU503
 1969 000e 23F00803 		bic	r3, r3, #8
ARM GAS  /var/folders/h5/b3x4g50d3yx3hd9mlg8mn_600000gn/T//cc8A1z0P.s 			page 52


 1970 0012 8361     		str	r3, [r0, #24]
 940:../../../GD32F4xx_Firmware_Library/GD32F4xx_standard_peripheral/Source/gd32f4xx_timer.c ****         TIMER_CHCTL0(timer_periph) |= (uint32_t)ocshadow;
 1971              		.loc 1 940 9 is_stmt 1 view .LVU504
 1972 0014 8369     		ldr	r3, [r0, #24]
 1973              		.loc 1 940 36 is_stmt 0 view .LVU505
 1974 0016 1343     		orrs	r3, r3, r2
 1975 0018 8361     		str	r3, [r0, #24]
 941:../../../GD32F4xx_Firmware_Library/GD32F4xx_standard_peripheral/Source/gd32f4xx_timer.c ****         break;
 1976              		.loc 1 941 9 is_stmt 1 view .LVU506
 1977 001a 7047     		bx	lr
 1978              	.L124:
 942:../../../GD32F4xx_Firmware_Library/GD32F4xx_standard_peripheral/Source/gd32f4xx_timer.c ****     /* configure TIMER_CH_1 */
 943:../../../GD32F4xx_Firmware_Library/GD32F4xx_standard_peripheral/Source/gd32f4xx_timer.c ****     case TIMER_CH_1:
 944:../../../GD32F4xx_Firmware_Library/GD32F4xx_standard_peripheral/Source/gd32f4xx_timer.c ****         TIMER_CHCTL0(timer_periph) &= (~(uint32_t)TIMER_CHCTL0_CH1COMSEN);
 1979              		.loc 1 944 9 view .LVU507
 1980 001c 8369     		ldr	r3, [r0, #24]
 1981              		.loc 1 944 36 is_stmt 0 view .LVU508
 1982 001e 23F40063 		bic	r3, r3, #2048
 1983 0022 8361     		str	r3, [r0, #24]
 945:../../../GD32F4xx_Firmware_Library/GD32F4xx_standard_peripheral/Source/gd32f4xx_timer.c ****         TIMER_CHCTL0(timer_periph) |= (uint32_t)((uint32_t)(ocshadow) << 8U);
 1984              		.loc 1 945 9 is_stmt 1 view .LVU509
 1985 0024 8369     		ldr	r3, [r0, #24]
 1986              		.loc 1 945 36 is_stmt 0 view .LVU510
 1987 0026 43EA0223 		orr	r3, r3, r2, lsl #8
 1988 002a 8361     		str	r3, [r0, #24]
 946:../../../GD32F4xx_Firmware_Library/GD32F4xx_standard_peripheral/Source/gd32f4xx_timer.c ****         break;
 1989              		.loc 1 946 9 is_stmt 1 view .LVU511
 1990 002c 7047     		bx	lr
 1991              	.L123:
 947:../../../GD32F4xx_Firmware_Library/GD32F4xx_standard_peripheral/Source/gd32f4xx_timer.c ****     /* configure TIMER_CH_2 */
 948:../../../GD32F4xx_Firmware_Library/GD32F4xx_standard_peripheral/Source/gd32f4xx_timer.c ****     case TIMER_CH_2:
 949:../../../GD32F4xx_Firmware_Library/GD32F4xx_standard_peripheral/Source/gd32f4xx_timer.c ****         TIMER_CHCTL1(timer_periph) &= (~(uint32_t)TIMER_CHCTL1_CH2COMSEN);
 1992              		.loc 1 949 9 view .LVU512
 1993 002e C369     		ldr	r3, [r0, #28]
 1994              		.loc 1 949 36 is_stmt 0 view .LVU513
 1995 0030 23F00803 		bic	r3, r3, #8
 1996 0034 C361     		str	r3, [r0, #28]
 950:../../../GD32F4xx_Firmware_Library/GD32F4xx_standard_peripheral/Source/gd32f4xx_timer.c ****         TIMER_CHCTL1(timer_periph) |= (uint32_t)ocshadow;
 1997              		.loc 1 950 9 is_stmt 1 view .LVU514
 1998 0036 C369     		ldr	r3, [r0, #28]
 1999              		.loc 1 950 36 is_stmt 0 view .LVU515
 2000 0038 1343     		orrs	r3, r3, r2
 2001 003a C361     		str	r3, [r0, #28]
 951:../../../GD32F4xx_Firmware_Library/GD32F4xx_standard_peripheral/Source/gd32f4xx_timer.c ****         break;
 2002              		.loc 1 951 9 is_stmt 1 view .LVU516
 2003 003c 7047     		bx	lr
 2004              	.L121:
 952:../../../GD32F4xx_Firmware_Library/GD32F4xx_standard_peripheral/Source/gd32f4xx_timer.c ****     /* configure TIMER_CH_3 */
 953:../../../GD32F4xx_Firmware_Library/GD32F4xx_standard_peripheral/Source/gd32f4xx_timer.c ****     case TIMER_CH_3:
 954:../../../GD32F4xx_Firmware_Library/GD32F4xx_standard_peripheral/Source/gd32f4xx_timer.c ****         TIMER_CHCTL1(timer_periph) &= (~(uint32_t)TIMER_CHCTL1_CH3COMSEN);
 2005              		.loc 1 954 9 view .LVU517
 2006 003e C369     		ldr	r3, [r0, #28]
 2007              		.loc 1 954 36 is_stmt 0 view .LVU518
 2008 0040 23F40063 		bic	r3, r3, #2048
 2009 0044 C361     		str	r3, [r0, #28]
 955:../../../GD32F4xx_Firmware_Library/GD32F4xx_standard_peripheral/Source/gd32f4xx_timer.c ****         TIMER_CHCTL1(timer_periph) |= (uint32_t)((uint32_t)(ocshadow) << 8U);
 2010              		.loc 1 955 9 is_stmt 1 view .LVU519
ARM GAS  /var/folders/h5/b3x4g50d3yx3hd9mlg8mn_600000gn/T//cc8A1z0P.s 			page 53


 2011 0046 C369     		ldr	r3, [r0, #28]
 2012              		.loc 1 955 36 is_stmt 0 view .LVU520
 2013 0048 43EA0223 		orr	r3, r3, r2, lsl #8
 2014 004c C361     		str	r3, [r0, #28]
 956:../../../GD32F4xx_Firmware_Library/GD32F4xx_standard_peripheral/Source/gd32f4xx_timer.c ****         break;
 2015              		.loc 1 956 9 is_stmt 1 view .LVU521
 2016              	.L119:
 957:../../../GD32F4xx_Firmware_Library/GD32F4xx_standard_peripheral/Source/gd32f4xx_timer.c ****     default:
 958:../../../GD32F4xx_Firmware_Library/GD32F4xx_standard_peripheral/Source/gd32f4xx_timer.c ****         break;
 959:../../../GD32F4xx_Firmware_Library/GD32F4xx_standard_peripheral/Source/gd32f4xx_timer.c ****     }
 960:../../../GD32F4xx_Firmware_Library/GD32F4xx_standard_peripheral/Source/gd32f4xx_timer.c **** }
 2017              		.loc 1 960 1 is_stmt 0 view .LVU522
 2018 004e 7047     		bx	lr
 2019              		.cfi_endproc
 2020              	.LFE154:
 2022              		.section	.text.timer_channel_output_fast_config,"ax",%progbits
 2023              		.align	1
 2024              		.global	timer_channel_output_fast_config
 2025              		.syntax unified
 2026              		.thumb
 2027              		.thumb_func
 2029              	timer_channel_output_fast_config:
 2030              	.LVL109:
 2031              	.LFB155:
 961:../../../GD32F4xx_Firmware_Library/GD32F4xx_standard_peripheral/Source/gd32f4xx_timer.c **** 
 962:../../../GD32F4xx_Firmware_Library/GD32F4xx_standard_peripheral/Source/gd32f4xx_timer.c **** /*!
 963:../../../GD32F4xx_Firmware_Library/GD32F4xx_standard_peripheral/Source/gd32f4xx_timer.c ****     \brief      configure TIMER channel output fast function
 964:../../../GD32F4xx_Firmware_Library/GD32F4xx_standard_peripheral/Source/gd32f4xx_timer.c ****     \param[in]  timer_periph: please refer to the following parameters
 965:../../../GD32F4xx_Firmware_Library/GD32F4xx_standard_peripheral/Source/gd32f4xx_timer.c ****     \param[in]  channel:
 966:../../../GD32F4xx_Firmware_Library/GD32F4xx_standard_peripheral/Source/gd32f4xx_timer.c ****                 only one parameter can be selected which is shown as below:
 967:../../../GD32F4xx_Firmware_Library/GD32F4xx_standard_peripheral/Source/gd32f4xx_timer.c ****       \arg        TIMER_CH_0: TIMER channel0(TIMERx(x=0..4,7..13))
 968:../../../GD32F4xx_Firmware_Library/GD32F4xx_standard_peripheral/Source/gd32f4xx_timer.c ****       \arg        TIMER_CH_1: TIMER channel1(TIMERx(x=0..4,7,8,11))
 969:../../../GD32F4xx_Firmware_Library/GD32F4xx_standard_peripheral/Source/gd32f4xx_timer.c ****       \arg        TIMER_CH_2: TIMER channel2(TIMERx(x=0..4,7))
 970:../../../GD32F4xx_Firmware_Library/GD32F4xx_standard_peripheral/Source/gd32f4xx_timer.c ****       \arg        TIMER_CH_3: TIMER channel3(TIMERx(x=0..4,7))
 971:../../../GD32F4xx_Firmware_Library/GD32F4xx_standard_peripheral/Source/gd32f4xx_timer.c ****     \param[in]  ocfast: channel output fast function
 972:../../../GD32F4xx_Firmware_Library/GD32F4xx_standard_peripheral/Source/gd32f4xx_timer.c ****                 only one parameter can be selected which is shown as below:
 973:../../../GD32F4xx_Firmware_Library/GD32F4xx_standard_peripheral/Source/gd32f4xx_timer.c ****       \arg        TIMER_OC_FAST_ENABLE: channel output fast function enable
 974:../../../GD32F4xx_Firmware_Library/GD32F4xx_standard_peripheral/Source/gd32f4xx_timer.c ****       \arg        TIMER_OC_FAST_DISABLE: channel output fast function disable
 975:../../../GD32F4xx_Firmware_Library/GD32F4xx_standard_peripheral/Source/gd32f4xx_timer.c ****     \param[out] none
 976:../../../GD32F4xx_Firmware_Library/GD32F4xx_standard_peripheral/Source/gd32f4xx_timer.c ****     \retval     none
 977:../../../GD32F4xx_Firmware_Library/GD32F4xx_standard_peripheral/Source/gd32f4xx_timer.c **** */
 978:../../../GD32F4xx_Firmware_Library/GD32F4xx_standard_peripheral/Source/gd32f4xx_timer.c **** void timer_channel_output_fast_config(uint32_t timer_periph, uint16_t channel, uint16_t ocfast)
 979:../../../GD32F4xx_Firmware_Library/GD32F4xx_standard_peripheral/Source/gd32f4xx_timer.c **** {
 2032              		.loc 1 979 1 is_stmt 1 view -0
 2033              		.cfi_startproc
 2034              		@ args = 0, pretend = 0, frame = 0
 2035              		@ frame_needed = 0, uses_anonymous_args = 0
 2036              		@ link register save eliminated.
 980:../../../GD32F4xx_Firmware_Library/GD32F4xx_standard_peripheral/Source/gd32f4xx_timer.c ****     switch(channel) {
 2037              		.loc 1 980 5 view .LVU524
 2038 0000 0329     		cmp	r1, #3
 2039 0002 24D8     		bhi	.L127
 2040 0004 DFE801F0 		tbb	[pc, r1]
 2041              	.L130:
 2042 0008 02       		.byte	(.L133-.L130)/2
 2043 0009 0A       		.byte	(.L132-.L130)/2
 2044 000a 13       		.byte	(.L131-.L130)/2
ARM GAS  /var/folders/h5/b3x4g50d3yx3hd9mlg8mn_600000gn/T//cc8A1z0P.s 			page 54


 2045 000b 1B       		.byte	(.L129-.L130)/2
 2046              		.p2align 1
 2047              	.L133:
 981:../../../GD32F4xx_Firmware_Library/GD32F4xx_standard_peripheral/Source/gd32f4xx_timer.c ****     /* configure TIMER_CH_0 */
 982:../../../GD32F4xx_Firmware_Library/GD32F4xx_standard_peripheral/Source/gd32f4xx_timer.c ****     case TIMER_CH_0:
 983:../../../GD32F4xx_Firmware_Library/GD32F4xx_standard_peripheral/Source/gd32f4xx_timer.c ****         TIMER_CHCTL0(timer_periph) &= (~(uint32_t)TIMER_CHCTL0_CH0COMFEN);
 2048              		.loc 1 983 9 view .LVU525
 2049 000c 8369     		ldr	r3, [r0, #24]
 2050              		.loc 1 983 36 is_stmt 0 view .LVU526
 2051 000e 23F00403 		bic	r3, r3, #4
 2052 0012 8361     		str	r3, [r0, #24]
 984:../../../GD32F4xx_Firmware_Library/GD32F4xx_standard_peripheral/Source/gd32f4xx_timer.c ****         TIMER_CHCTL0(timer_periph) |= (uint32_t)ocfast;
 2053              		.loc 1 984 9 is_stmt 1 view .LVU527
 2054 0014 8369     		ldr	r3, [r0, #24]
 2055              		.loc 1 984 36 is_stmt 0 view .LVU528
 2056 0016 1343     		orrs	r3, r3, r2
 2057 0018 8361     		str	r3, [r0, #24]
 985:../../../GD32F4xx_Firmware_Library/GD32F4xx_standard_peripheral/Source/gd32f4xx_timer.c ****         break;
 2058              		.loc 1 985 9 is_stmt 1 view .LVU529
 2059 001a 7047     		bx	lr
 2060              	.L132:
 986:../../../GD32F4xx_Firmware_Library/GD32F4xx_standard_peripheral/Source/gd32f4xx_timer.c ****     /* configure TIMER_CH_1 */
 987:../../../GD32F4xx_Firmware_Library/GD32F4xx_standard_peripheral/Source/gd32f4xx_timer.c ****     case TIMER_CH_1:
 988:../../../GD32F4xx_Firmware_Library/GD32F4xx_standard_peripheral/Source/gd32f4xx_timer.c ****         TIMER_CHCTL0(timer_periph) &= (~(uint32_t)TIMER_CHCTL0_CH1COMFEN);
 2061              		.loc 1 988 9 view .LVU530
 2062 001c 8369     		ldr	r3, [r0, #24]
 2063              		.loc 1 988 36 is_stmt 0 view .LVU531
 2064 001e 23F48063 		bic	r3, r3, #1024
 2065 0022 8361     		str	r3, [r0, #24]
 989:../../../GD32F4xx_Firmware_Library/GD32F4xx_standard_peripheral/Source/gd32f4xx_timer.c ****         TIMER_CHCTL0(timer_periph) |= (uint32_t)((uint32_t)ocfast << 8U);
 2066              		.loc 1 989 9 is_stmt 1 view .LVU532
 2067 0024 8369     		ldr	r3, [r0, #24]
 2068              		.loc 1 989 36 is_stmt 0 view .LVU533
 2069 0026 43EA0223 		orr	r3, r3, r2, lsl #8
 2070 002a 8361     		str	r3, [r0, #24]
 990:../../../GD32F4xx_Firmware_Library/GD32F4xx_standard_peripheral/Source/gd32f4xx_timer.c ****         break;
 2071              		.loc 1 990 9 is_stmt 1 view .LVU534
 2072 002c 7047     		bx	lr
 2073              	.L131:
 991:../../../GD32F4xx_Firmware_Library/GD32F4xx_standard_peripheral/Source/gd32f4xx_timer.c ****     /* configure TIMER_CH_2 */
 992:../../../GD32F4xx_Firmware_Library/GD32F4xx_standard_peripheral/Source/gd32f4xx_timer.c ****     case TIMER_CH_2:
 993:../../../GD32F4xx_Firmware_Library/GD32F4xx_standard_peripheral/Source/gd32f4xx_timer.c ****         TIMER_CHCTL1(timer_periph) &= (~(uint32_t)TIMER_CHCTL1_CH2COMFEN);
 2074              		.loc 1 993 9 view .LVU535
 2075 002e C369     		ldr	r3, [r0, #28]
 2076              		.loc 1 993 36 is_stmt 0 view .LVU536
 2077 0030 23F00403 		bic	r3, r3, #4
 2078 0034 C361     		str	r3, [r0, #28]
 994:../../../GD32F4xx_Firmware_Library/GD32F4xx_standard_peripheral/Source/gd32f4xx_timer.c ****         TIMER_CHCTL1(timer_periph) |= (uint32_t)ocfast;
 2079              		.loc 1 994 9 is_stmt 1 view .LVU537
 2080 0036 C369     		ldr	r3, [r0, #28]
 2081              		.loc 1 994 36 is_stmt 0 view .LVU538
 2082 0038 1343     		orrs	r3, r3, r2
 2083 003a C361     		str	r3, [r0, #28]
 995:../../../GD32F4xx_Firmware_Library/GD32F4xx_standard_peripheral/Source/gd32f4xx_timer.c ****         break;
 2084              		.loc 1 995 9 is_stmt 1 view .LVU539
 2085 003c 7047     		bx	lr
 2086              	.L129:
ARM GAS  /var/folders/h5/b3x4g50d3yx3hd9mlg8mn_600000gn/T//cc8A1z0P.s 			page 55


 996:../../../GD32F4xx_Firmware_Library/GD32F4xx_standard_peripheral/Source/gd32f4xx_timer.c ****     /* configure TIMER_CH_3 */
 997:../../../GD32F4xx_Firmware_Library/GD32F4xx_standard_peripheral/Source/gd32f4xx_timer.c ****     case TIMER_CH_3:
 998:../../../GD32F4xx_Firmware_Library/GD32F4xx_standard_peripheral/Source/gd32f4xx_timer.c ****         TIMER_CHCTL1(timer_periph) &= (~(uint32_t)TIMER_CHCTL1_CH3COMFEN);
 2087              		.loc 1 998 9 view .LVU540
 2088 003e C369     		ldr	r3, [r0, #28]
 2089              		.loc 1 998 36 is_stmt 0 view .LVU541
 2090 0040 23F48063 		bic	r3, r3, #1024
 2091 0044 C361     		str	r3, [r0, #28]
 999:../../../GD32F4xx_Firmware_Library/GD32F4xx_standard_peripheral/Source/gd32f4xx_timer.c ****         TIMER_CHCTL1(timer_periph) |= (uint32_t)((uint32_t)ocfast << 8U);
 2092              		.loc 1 999 9 is_stmt 1 view .LVU542
 2093 0046 C369     		ldr	r3, [r0, #28]
 2094              		.loc 1 999 36 is_stmt 0 view .LVU543
 2095 0048 43EA0223 		orr	r3, r3, r2, lsl #8
 2096 004c C361     		str	r3, [r0, #28]
1000:../../../GD32F4xx_Firmware_Library/GD32F4xx_standard_peripheral/Source/gd32f4xx_timer.c ****         break;
 2097              		.loc 1 1000 9 is_stmt 1 view .LVU544
 2098              	.L127:
1001:../../../GD32F4xx_Firmware_Library/GD32F4xx_standard_peripheral/Source/gd32f4xx_timer.c ****     default:
1002:../../../GD32F4xx_Firmware_Library/GD32F4xx_standard_peripheral/Source/gd32f4xx_timer.c ****         break;
1003:../../../GD32F4xx_Firmware_Library/GD32F4xx_standard_peripheral/Source/gd32f4xx_timer.c ****     }
1004:../../../GD32F4xx_Firmware_Library/GD32F4xx_standard_peripheral/Source/gd32f4xx_timer.c **** }
 2099              		.loc 1 1004 1 is_stmt 0 view .LVU545
 2100 004e 7047     		bx	lr
 2101              		.cfi_endproc
 2102              	.LFE155:
 2104              		.section	.text.timer_channel_output_clear_config,"ax",%progbits
 2105              		.align	1
 2106              		.global	timer_channel_output_clear_config
 2107              		.syntax unified
 2108              		.thumb
 2109              		.thumb_func
 2111              	timer_channel_output_clear_config:
 2112              	.LVL110:
 2113              	.LFB156:
1005:../../../GD32F4xx_Firmware_Library/GD32F4xx_standard_peripheral/Source/gd32f4xx_timer.c **** 
1006:../../../GD32F4xx_Firmware_Library/GD32F4xx_standard_peripheral/Source/gd32f4xx_timer.c **** /*!
1007:../../../GD32F4xx_Firmware_Library/GD32F4xx_standard_peripheral/Source/gd32f4xx_timer.c ****     \brief      configure TIMER channel output clear function
1008:../../../GD32F4xx_Firmware_Library/GD32F4xx_standard_peripheral/Source/gd32f4xx_timer.c ****     \param[in]  timer_periph: please refer to the following parameters
1009:../../../GD32F4xx_Firmware_Library/GD32F4xx_standard_peripheral/Source/gd32f4xx_timer.c ****     \param[in]  channel:
1010:../../../GD32F4xx_Firmware_Library/GD32F4xx_standard_peripheral/Source/gd32f4xx_timer.c ****                 only one parameter can be selected which is shown as below:
1011:../../../GD32F4xx_Firmware_Library/GD32F4xx_standard_peripheral/Source/gd32f4xx_timer.c ****       \arg        TIMER_CH_0: TIMER channel0(TIMERx(x=0..4,7))
1012:../../../GD32F4xx_Firmware_Library/GD32F4xx_standard_peripheral/Source/gd32f4xx_timer.c ****       \arg        TIMER_CH_1: TIMER channel1(TIMERx(x=0..4,7))
1013:../../../GD32F4xx_Firmware_Library/GD32F4xx_standard_peripheral/Source/gd32f4xx_timer.c ****       \arg        TIMER_CH_2: TIMER channel2(TIMERx(x=0..4,7))
1014:../../../GD32F4xx_Firmware_Library/GD32F4xx_standard_peripheral/Source/gd32f4xx_timer.c ****       \arg        TIMER_CH_3: TIMER channel3(TIMERx(x=0..4,7))
1015:../../../GD32F4xx_Firmware_Library/GD32F4xx_standard_peripheral/Source/gd32f4xx_timer.c ****     \param[in]  occlear: channel output clear function
1016:../../../GD32F4xx_Firmware_Library/GD32F4xx_standard_peripheral/Source/gd32f4xx_timer.c ****                 only one parameter can be selected which is shown as below:
1017:../../../GD32F4xx_Firmware_Library/GD32F4xx_standard_peripheral/Source/gd32f4xx_timer.c ****       \arg        TIMER_OC_CLEAR_ENABLE: channel output clear function enable
1018:../../../GD32F4xx_Firmware_Library/GD32F4xx_standard_peripheral/Source/gd32f4xx_timer.c ****       \arg        TIMER_OC_CLEAR_DISABLE: channel output clear function disable
1019:../../../GD32F4xx_Firmware_Library/GD32F4xx_standard_peripheral/Source/gd32f4xx_timer.c ****     \param[out] none
1020:../../../GD32F4xx_Firmware_Library/GD32F4xx_standard_peripheral/Source/gd32f4xx_timer.c ****     \retval     none
1021:../../../GD32F4xx_Firmware_Library/GD32F4xx_standard_peripheral/Source/gd32f4xx_timer.c **** */
1022:../../../GD32F4xx_Firmware_Library/GD32F4xx_standard_peripheral/Source/gd32f4xx_timer.c **** void timer_channel_output_clear_config(uint32_t timer_periph, uint16_t channel, uint16_t occlear)
1023:../../../GD32F4xx_Firmware_Library/GD32F4xx_standard_peripheral/Source/gd32f4xx_timer.c **** {
 2114              		.loc 1 1023 1 is_stmt 1 view -0
 2115              		.cfi_startproc
 2116              		@ args = 0, pretend = 0, frame = 0
 2117              		@ frame_needed = 0, uses_anonymous_args = 0
ARM GAS  /var/folders/h5/b3x4g50d3yx3hd9mlg8mn_600000gn/T//cc8A1z0P.s 			page 56


 2118              		@ link register save eliminated.
1024:../../../GD32F4xx_Firmware_Library/GD32F4xx_standard_peripheral/Source/gd32f4xx_timer.c ****     switch(channel) {
 2119              		.loc 1 1024 5 view .LVU547
 2120 0000 0329     		cmp	r1, #3
 2121 0002 24D8     		bhi	.L135
 2122 0004 DFE801F0 		tbb	[pc, r1]
 2123              	.L138:
 2124 0008 02       		.byte	(.L141-.L138)/2
 2125 0009 0A       		.byte	(.L140-.L138)/2
 2126 000a 13       		.byte	(.L139-.L138)/2
 2127 000b 1B       		.byte	(.L137-.L138)/2
 2128              		.p2align 1
 2129              	.L141:
1025:../../../GD32F4xx_Firmware_Library/GD32F4xx_standard_peripheral/Source/gd32f4xx_timer.c ****     /* configure TIMER_CH_0 */
1026:../../../GD32F4xx_Firmware_Library/GD32F4xx_standard_peripheral/Source/gd32f4xx_timer.c ****     case TIMER_CH_0:
1027:../../../GD32F4xx_Firmware_Library/GD32F4xx_standard_peripheral/Source/gd32f4xx_timer.c ****         TIMER_CHCTL0(timer_periph) &= (~(uint32_t)TIMER_CHCTL0_CH0COMCEN);
 2130              		.loc 1 1027 9 view .LVU548
 2131 000c 8369     		ldr	r3, [r0, #24]
 2132              		.loc 1 1027 36 is_stmt 0 view .LVU549
 2133 000e 23F08003 		bic	r3, r3, #128
 2134 0012 8361     		str	r3, [r0, #24]
1028:../../../GD32F4xx_Firmware_Library/GD32F4xx_standard_peripheral/Source/gd32f4xx_timer.c ****         TIMER_CHCTL0(timer_periph) |= (uint32_t)occlear;
 2135              		.loc 1 1028 9 is_stmt 1 view .LVU550
 2136 0014 8369     		ldr	r3, [r0, #24]
 2137              		.loc 1 1028 36 is_stmt 0 view .LVU551
 2138 0016 1343     		orrs	r3, r3, r2
 2139 0018 8361     		str	r3, [r0, #24]
1029:../../../GD32F4xx_Firmware_Library/GD32F4xx_standard_peripheral/Source/gd32f4xx_timer.c ****         break;
 2140              		.loc 1 1029 9 is_stmt 1 view .LVU552
 2141 001a 7047     		bx	lr
 2142              	.L140:
1030:../../../GD32F4xx_Firmware_Library/GD32F4xx_standard_peripheral/Source/gd32f4xx_timer.c ****     /* configure TIMER_CH_1 */
1031:../../../GD32F4xx_Firmware_Library/GD32F4xx_standard_peripheral/Source/gd32f4xx_timer.c ****     case TIMER_CH_1:
1032:../../../GD32F4xx_Firmware_Library/GD32F4xx_standard_peripheral/Source/gd32f4xx_timer.c ****         TIMER_CHCTL0(timer_periph) &= (~(uint32_t)TIMER_CHCTL0_CH1COMCEN);
 2143              		.loc 1 1032 9 view .LVU553
 2144 001c 8369     		ldr	r3, [r0, #24]
 2145              		.loc 1 1032 36 is_stmt 0 view .LVU554
 2146 001e 23F40043 		bic	r3, r3, #32768
 2147 0022 8361     		str	r3, [r0, #24]
1033:../../../GD32F4xx_Firmware_Library/GD32F4xx_standard_peripheral/Source/gd32f4xx_timer.c ****         TIMER_CHCTL0(timer_periph) |= (uint32_t)((uint32_t)occlear << 8U);
 2148              		.loc 1 1033 9 is_stmt 1 view .LVU555
 2149 0024 8369     		ldr	r3, [r0, #24]
 2150              		.loc 1 1033 36 is_stmt 0 view .LVU556
 2151 0026 43EA0223 		orr	r3, r3, r2, lsl #8
 2152 002a 8361     		str	r3, [r0, #24]
1034:../../../GD32F4xx_Firmware_Library/GD32F4xx_standard_peripheral/Source/gd32f4xx_timer.c ****         break;
 2153              		.loc 1 1034 9 is_stmt 1 view .LVU557
 2154 002c 7047     		bx	lr
 2155              	.L139:
1035:../../../GD32F4xx_Firmware_Library/GD32F4xx_standard_peripheral/Source/gd32f4xx_timer.c ****     /* configure TIMER_CH_2 */
1036:../../../GD32F4xx_Firmware_Library/GD32F4xx_standard_peripheral/Source/gd32f4xx_timer.c ****     case TIMER_CH_2:
1037:../../../GD32F4xx_Firmware_Library/GD32F4xx_standard_peripheral/Source/gd32f4xx_timer.c ****         TIMER_CHCTL1(timer_periph) &= (~(uint32_t)TIMER_CHCTL1_CH2COMCEN);
 2156              		.loc 1 1037 9 view .LVU558
 2157 002e C369     		ldr	r3, [r0, #28]
 2158              		.loc 1 1037 36 is_stmt 0 view .LVU559
 2159 0030 23F08003 		bic	r3, r3, #128
 2160 0034 C361     		str	r3, [r0, #28]
ARM GAS  /var/folders/h5/b3x4g50d3yx3hd9mlg8mn_600000gn/T//cc8A1z0P.s 			page 57


1038:../../../GD32F4xx_Firmware_Library/GD32F4xx_standard_peripheral/Source/gd32f4xx_timer.c ****         TIMER_CHCTL1(timer_periph) |= (uint32_t)occlear;
 2161              		.loc 1 1038 9 is_stmt 1 view .LVU560
 2162 0036 C369     		ldr	r3, [r0, #28]
 2163              		.loc 1 1038 36 is_stmt 0 view .LVU561
 2164 0038 1343     		orrs	r3, r3, r2
 2165 003a C361     		str	r3, [r0, #28]
1039:../../../GD32F4xx_Firmware_Library/GD32F4xx_standard_peripheral/Source/gd32f4xx_timer.c ****         break;
 2166              		.loc 1 1039 9 is_stmt 1 view .LVU562
 2167 003c 7047     		bx	lr
 2168              	.L137:
1040:../../../GD32F4xx_Firmware_Library/GD32F4xx_standard_peripheral/Source/gd32f4xx_timer.c ****     /* configure TIMER_CH_3 */
1041:../../../GD32F4xx_Firmware_Library/GD32F4xx_standard_peripheral/Source/gd32f4xx_timer.c ****     case TIMER_CH_3:
1042:../../../GD32F4xx_Firmware_Library/GD32F4xx_standard_peripheral/Source/gd32f4xx_timer.c ****         TIMER_CHCTL1(timer_periph) &= (~(uint32_t)TIMER_CHCTL1_CH3COMCEN);
 2169              		.loc 1 1042 9 view .LVU563
 2170 003e C369     		ldr	r3, [r0, #28]
 2171              		.loc 1 1042 36 is_stmt 0 view .LVU564
 2172 0040 23F40043 		bic	r3, r3, #32768
 2173 0044 C361     		str	r3, [r0, #28]
1043:../../../GD32F4xx_Firmware_Library/GD32F4xx_standard_peripheral/Source/gd32f4xx_timer.c ****         TIMER_CHCTL1(timer_periph) |= (uint32_t)((uint32_t)occlear << 8U);
 2174              		.loc 1 1043 9 is_stmt 1 view .LVU565
 2175 0046 C369     		ldr	r3, [r0, #28]
 2176              		.loc 1 1043 36 is_stmt 0 view .LVU566
 2177 0048 43EA0223 		orr	r3, r3, r2, lsl #8
 2178 004c C361     		str	r3, [r0, #28]
1044:../../../GD32F4xx_Firmware_Library/GD32F4xx_standard_peripheral/Source/gd32f4xx_timer.c ****         break;
 2179              		.loc 1 1044 9 is_stmt 1 view .LVU567
 2180              	.L135:
1045:../../../GD32F4xx_Firmware_Library/GD32F4xx_standard_peripheral/Source/gd32f4xx_timer.c ****     default:
1046:../../../GD32F4xx_Firmware_Library/GD32F4xx_standard_peripheral/Source/gd32f4xx_timer.c ****         break;
1047:../../../GD32F4xx_Firmware_Library/GD32F4xx_standard_peripheral/Source/gd32f4xx_timer.c ****     }
1048:../../../GD32F4xx_Firmware_Library/GD32F4xx_standard_peripheral/Source/gd32f4xx_timer.c **** }
 2181              		.loc 1 1048 1 is_stmt 0 view .LVU568
 2182 004e 7047     		bx	lr
 2183              		.cfi_endproc
 2184              	.LFE156:
 2186              		.section	.text.timer_channel_output_polarity_config,"ax",%progbits
 2187              		.align	1
 2188              		.global	timer_channel_output_polarity_config
 2189              		.syntax unified
 2190              		.thumb
 2191              		.thumb_func
 2193              	timer_channel_output_polarity_config:
 2194              	.LVL111:
 2195              	.LFB157:
1049:../../../GD32F4xx_Firmware_Library/GD32F4xx_standard_peripheral/Source/gd32f4xx_timer.c **** 
1050:../../../GD32F4xx_Firmware_Library/GD32F4xx_standard_peripheral/Source/gd32f4xx_timer.c **** /*!
1051:../../../GD32F4xx_Firmware_Library/GD32F4xx_standard_peripheral/Source/gd32f4xx_timer.c ****     \brief      configure TIMER channel output polarity
1052:../../../GD32F4xx_Firmware_Library/GD32F4xx_standard_peripheral/Source/gd32f4xx_timer.c ****     \param[in]  timer_periph: please refer to the following parameters
1053:../../../GD32F4xx_Firmware_Library/GD32F4xx_standard_peripheral/Source/gd32f4xx_timer.c ****     \param[in]  channel:
1054:../../../GD32F4xx_Firmware_Library/GD32F4xx_standard_peripheral/Source/gd32f4xx_timer.c ****                 only one parameter can be selected which is shown as below:
1055:../../../GD32F4xx_Firmware_Library/GD32F4xx_standard_peripheral/Source/gd32f4xx_timer.c ****       \arg        TIMER_CH_0: TIMER channel0(TIMERx(x=0..4,7..13))
1056:../../../GD32F4xx_Firmware_Library/GD32F4xx_standard_peripheral/Source/gd32f4xx_timer.c ****       \arg        TIMER_CH_1: TIMER channel1(TIMERx(x=0..4,7,8,11))
1057:../../../GD32F4xx_Firmware_Library/GD32F4xx_standard_peripheral/Source/gd32f4xx_timer.c ****       \arg        TIMER_CH_2: TIMER channel2(TIMERx(x=0..4,7))
