ARM GAS  /var/folders/h5/b3x4g50d3yx3hd9mlg8mn_600000gn/T//cc7U9vnJ.s 			page 1


   1              		.cpu cortex-m4
   2              		.arch armv7e-m
   3              		.fpu fpv4-sp-d16
   4              		.eabi_attribute 27, 1
   5              		.eabi_attribute 28, 1
   6              		.eabi_attribute 20, 1
   7              		.eabi_attribute 21, 1
   8              		.eabi_attribute 23, 3
   9              		.eabi_attribute 24, 1
  10              		.eabi_attribute 25, 1
  11              		.eabi_attribute 26, 1
  12              		.eabi_attribute 30, 1
  13              		.eabi_attribute 34, 1
  14              		.eabi_attribute 18, 4
  15              		.file	"main.c"
  16              		.text
  17              	.Ltext0:
  18              		.cfi_sections	.debug_frame
  19              		.file 1 "main.c"
  20              		.section	.text.main,"ax",%progbits
  21              		.align	1
  22              		.global	main
  23              		.syntax unified
  24              		.thumb
  25              		.thumb_func
  27              	main:
  28              	.LFB119:
   1:main.c        **** /*!
   2:main.c        ****     \file    main.c
   3:main.c        ****     \brief   GPIO running led demo
   4:main.c        **** 
   5:main.c        ****     \version 2022-04-26, V2.0.0, demo for GD32F4xx
   6:main.c        **** */
   7:main.c        **** 
   8:main.c        **** /*
   9:main.c        ****     Copyright (c) 2022, GigaDevice Semiconductor Inc.
  10:main.c        **** 
  11:main.c        ****     Redistribution and use in source and binary forms, with or without modification,
  12:main.c        **** are permitted provided that the following conditions are met:
  13:main.c        **** 
  14:main.c        ****     1. Redistributions of source code must retain the above copyright notice, this
  15:main.c        ****        list of conditions and the following disclaimer.
  16:main.c        ****     2. Redistributions in binary form must reproduce the above copyright notice,
  17:main.c        ****        this list of conditions and the following disclaimer in the documentation
  18:main.c        ****        and/or other materials provided with the distribution.
  19:main.c        ****     3. Neither the name of the copyright holder nor the names of its contributors
  20:main.c        ****        may be used to endorse or promote products derived from this software without
  21:main.c        ****        specific prior written permission.
  22:main.c        **** 
  23:main.c        ****     THIS SOFTWARE IS PROVIDED BY THE COPYRIGHT HOLDERS AND CONTRIBUTORS "AS IS"
  24:main.c        **** AND ANY EXPRESS OR IMPLIED WARRANTIES, INCLUDING, BUT NOT LIMITED TO, THE IMPLIED
  25:main.c        **** WARRANTIES OF MERCHANTABILITY AND FITNESS FOR A PARTICULAR PURPOSE ARE DISCLAIMED.
  26:main.c        **** IN NO EVENT SHALL THE COPYRIGHT HOLDER OR CONTRIBUTORS BE LIABLE FOR ANY DIRECT,
  27:main.c        **** INDIRECT, INCIDENTAL, SPECIAL, EXEMPLARY, OR CONSEQUENTIAL DAMAGES (INCLUDING, BUT
  28:main.c        **** NOT LIMITED TO, PROCUREMENT OF SUBSTITUTE GOODS OR SERVICES; LOSS OF USE, DATA, OR
  29:main.c        **** PROFITS; OR BUSINESS INTERRUPTION) HOWEVER CAUSED AND ON ANY THEORY OF LIABILITY,
  30:main.c        **** WHETHER IN CONTRACT, STRICT LIABILITY, OR TORT (INCLUDING NEGLIGENCE OR OTHERWISE)
ARM GAS  /var/folders/h5/b3x4g50d3yx3hd9mlg8mn_600000gn/T//cc7U9vnJ.s 			page 2


  31:main.c        **** ARISING IN ANY WAY OUT OF THE USE OF THIS SOFTWARE, EVEN IF ADVISED OF THE POSSIBILITY
  32:main.c        **** OF SUCH DAMAGE.
  33:main.c        **** */
  34:main.c        **** 
  35:main.c        **** #include <stdio.h>
  36:main.c        **** 
  37:main.c        **** #include "bsp_led.h"
  38:main.c        **** 
  39:main.c        **** /*!
  40:main.c        ****     \brief      main function
  41:main.c        ****     \param[in]  none
  42:main.c        ****     \param[out] none
  43:main.c        ****     \retval     none
  44:main.c        **** */
  45:main.c        **** int main(void)
  46:main.c        **** {
  29              		.loc 1 46 1 view -0
  30              		.cfi_startproc
  31              		@ Volatile: function does not return.
  32              		@ args = 0, pretend = 0, frame = 0
  33              		@ frame_needed = 0, uses_anonymous_args = 0
  34 0000 08B5     		push	{r3, lr}
  35              	.LCFI0:
  36              		.cfi_def_cfa_offset 8
  37              		.cfi_offset 3, -8
  38              		.cfi_offset 14, -4
  47:main.c        ****     /* configure systick */
  48:main.c        ****     systick_config();
  39              		.loc 1 48 5 view .LVU1
  40 0002 FFF7FEFF 		bl	systick_config
  41              	.LVL0:
  49:main.c        **** 
  50:main.c        ****     led_gpio_config();
  42              		.loc 1 50 5 view .LVU2
  43 0006 FFF7FEFF 		bl	led_gpio_config
  44              	.LVL1:
  45              	.L2:
  51:main.c        **** 	
  52:main.c        **** 	while(1) {
  46              		.loc 1 52 2 discriminator 1 view .LVU3
  53:main.c        **** 		LED1_OUT = 1;
  47              		.loc 1 53 3 discriminator 1 view .LVU4
  48              		.loc 1 53 12 is_stmt 0 discriminator 1 view .LVU5
  49 000a 0124     		movs	r4, #1
  50 000c 0C4B     		ldr	r3, .L4
  51 000e C3F88C42 		str	r4, [r3, #652]
  54:main.c        **** 		delay_1ms(500);
  52              		.loc 1 54 3 is_stmt 1 discriminator 1 view .LVU6
  53 0012 4FF4FA70 		mov	r0, #500
  54 0016 FFF7FEFF 		bl	delay_1ms
  55              	.LVL2:
  55:main.c        **** 		LED2_OUT = 1;
  56              		.loc 1 55 3 discriminator 1 view .LVU7
  57              		.loc 1 55 12 is_stmt 0 discriminator 1 view .LVU8
  58 001a 0A4B     		ldr	r3, .L4+4
  59 001c C3F89C42 		str	r4, [r3, #668]
  56:main.c        **** 		delay_1ms(500);
ARM GAS  /var/folders/h5/b3x4g50d3yx3hd9mlg8mn_600000gn/T//cc7U9vnJ.s 			page 3


  60              		.loc 1 56 3 is_stmt 1 discriminator 1 view .LVU9
  61 0020 4FF4FA70 		mov	r0, #500
  62 0024 FFF7FEFF 		bl	delay_1ms
  63              	.LVL3:
  57:main.c        **** 		LED3_OUT = 1;
  64              		.loc 1 57 3 discriminator 1 view .LVU10
  65              		.loc 1 57 12 is_stmt 0 discriminator 1 view .LVU11
  66 0028 074B     		ldr	r3, .L4+8
  67 002a C3F88C42 		str	r4, [r3, #652]
  58:main.c        **** 		delay_1ms(500);
  68              		.loc 1 58 3 is_stmt 1 discriminator 1 view .LVU12
  69 002e 4FF4FA70 		mov	r0, #500
  70 0032 FFF7FEFF 		bl	delay_1ms
  71              	.LVL4:
  59:main.c        **** 		LED4_OUT = 1;
  72              		.loc 1 59 3 discriminator 1 view .LVU13
  73              		.loc 1 59 12 is_stmt 0 discriminator 1 view .LVU14
  74 0036 054B     		ldr	r3, .L4+12
  75 0038 C3F89442 		str	r4, [r3, #660]
  52:main.c        **** 		LED1_OUT = 1;
  76              		.loc 1 52 7 is_stmt 1 discriminator 1 view .LVU15
  77 003c E5E7     		b	.L2
  78              	.L5:
  79 003e 00BF     		.align	2
  80              	.L4:
  81 0040 00004242 		.word	1111621632
  82 0044 00804142 		.word	1111588864
  83 0048 00004342 		.word	1111687168
  84 004c 00004042 		.word	1111490560
  85              		.cfi_endproc
  86              	.LFE119:
  88              		.text
  89              	.Letext0:
  90              		.file 2 "/Applications/ArmGNUToolchain/12.2.mpacbti-rel1/arm-none-eabi/arm-none-eabi/include/machi
  91              		.file 3 "/Applications/ArmGNUToolchain/12.2.mpacbti-rel1/arm-none-eabi/arm-none-eabi/include/sys/_
  92              		.file 4 "bsp_led.h"
  93              		.file 5 "systick.h"
ARM GAS  /var/folders/h5/b3x4g50d3yx3hd9mlg8mn_600000gn/T//cc7U9vnJ.s 			page 4


DEFINED SYMBOLS
                            *ABS*:00000000 main.c
/var/folders/h5/b3x4g50d3yx3hd9mlg8mn_600000gn/T//cc7U9vnJ.s:21     .text.main:00000000 $t
/var/folders/h5/b3x4g50d3yx3hd9mlg8mn_600000gn/T//cc7U9vnJ.s:27     .text.main:00000000 main
/var/folders/h5/b3x4g50d3yx3hd9mlg8mn_600000gn/T//cc7U9vnJ.s:81     .text.main:00000040 $d

UNDEFINED SYMBOLS
systick_config
led_gpio_config
delay_1ms
